
rtarget:     file format elf64-x86-64


Disassembly of section .init:

0000000000400c60 <_init>:
  400c60:	48 83 ec 08          	sub    $0x8,%rsp
  400c64:	48 8b 05 8d 43 20 00 	mov    0x20438d(%rip),%rax        # 604ff8 <_DYNAMIC+0x1d0>
  400c6b:	48 85 c0             	test   %rax,%rax
  400c6e:	74 05                	je     400c75 <_init+0x15>
  400c70:	e8 2b 01 00 00       	callq  400da0 <__gmon_start__@plt>
  400c75:	48 83 c4 08          	add    $0x8,%rsp
  400c79:	c3                   	retq   

Disassembly of section .plt:

0000000000400c80 <strcasecmp@plt-0x10>:
  400c80:	ff 35 82 43 20 00    	pushq  0x204382(%rip)        # 605008 <_GLOBAL_OFFSET_TABLE_+0x8>
  400c86:	ff 25 84 43 20 00    	jmpq   *0x204384(%rip)        # 605010 <_GLOBAL_OFFSET_TABLE_+0x10>
  400c8c:	0f 1f 40 00          	nopl   0x0(%rax)

0000000000400c90 <strcasecmp@plt>:
  400c90:	ff 25 82 43 20 00    	jmpq   *0x204382(%rip)        # 605018 <_GLOBAL_OFFSET_TABLE_+0x18>
  400c96:	68 00 00 00 00       	pushq  $0x0
  400c9b:	e9 e0 ff ff ff       	jmpq   400c80 <_init+0x20>

0000000000400ca0 <__errno_location@plt>:
  400ca0:	ff 25 7a 43 20 00    	jmpq   *0x20437a(%rip)        # 605020 <_GLOBAL_OFFSET_TABLE_+0x20>
  400ca6:	68 01 00 00 00       	pushq  $0x1
  400cab:	e9 d0 ff ff ff       	jmpq   400c80 <_init+0x20>

0000000000400cb0 <srandom@plt>:
  400cb0:	ff 25 72 43 20 00    	jmpq   *0x204372(%rip)        # 605028 <_GLOBAL_OFFSET_TABLE_+0x28>
  400cb6:	68 02 00 00 00       	pushq  $0x2
  400cbb:	e9 c0 ff ff ff       	jmpq   400c80 <_init+0x20>

0000000000400cc0 <strncmp@plt>:
  400cc0:	ff 25 6a 43 20 00    	jmpq   *0x20436a(%rip)        # 605030 <_GLOBAL_OFFSET_TABLE_+0x30>
  400cc6:	68 03 00 00 00       	pushq  $0x3
  400ccb:	e9 b0 ff ff ff       	jmpq   400c80 <_init+0x20>

0000000000400cd0 <strcpy@plt>:
  400cd0:	ff 25 62 43 20 00    	jmpq   *0x204362(%rip)        # 605038 <_GLOBAL_OFFSET_TABLE_+0x38>
  400cd6:	68 04 00 00 00       	pushq  $0x4
  400cdb:	e9 a0 ff ff ff       	jmpq   400c80 <_init+0x20>

0000000000400ce0 <puts@plt>:
  400ce0:	ff 25 5a 43 20 00    	jmpq   *0x20435a(%rip)        # 605040 <_GLOBAL_OFFSET_TABLE_+0x40>
  400ce6:	68 05 00 00 00       	pushq  $0x5
  400ceb:	e9 90 ff ff ff       	jmpq   400c80 <_init+0x20>

0000000000400cf0 <write@plt>:
  400cf0:	ff 25 52 43 20 00    	jmpq   *0x204352(%rip)        # 605048 <_GLOBAL_OFFSET_TABLE_+0x48>
  400cf6:	68 06 00 00 00       	pushq  $0x6
  400cfb:	e9 80 ff ff ff       	jmpq   400c80 <_init+0x20>

0000000000400d00 <__stack_chk_fail@plt>:
  400d00:	ff 25 4a 43 20 00    	jmpq   *0x20434a(%rip)        # 605050 <_GLOBAL_OFFSET_TABLE_+0x50>
  400d06:	68 07 00 00 00       	pushq  $0x7
  400d0b:	e9 70 ff ff ff       	jmpq   400c80 <_init+0x20>

0000000000400d10 <mmap@plt>:
  400d10:	ff 25 42 43 20 00    	jmpq   *0x204342(%rip)        # 605058 <_GLOBAL_OFFSET_TABLE_+0x58>
  400d16:	68 08 00 00 00       	pushq  $0x8
  400d1b:	e9 60 ff ff ff       	jmpq   400c80 <_init+0x20>

0000000000400d20 <memset@plt>:
  400d20:	ff 25 3a 43 20 00    	jmpq   *0x20433a(%rip)        # 605060 <_GLOBAL_OFFSET_TABLE_+0x60>
  400d26:	68 09 00 00 00       	pushq  $0x9
  400d2b:	e9 50 ff ff ff       	jmpq   400c80 <_init+0x20>

0000000000400d30 <alarm@plt>:
  400d30:	ff 25 32 43 20 00    	jmpq   *0x204332(%rip)        # 605068 <_GLOBAL_OFFSET_TABLE_+0x68>
  400d36:	68 0a 00 00 00       	pushq  $0xa
  400d3b:	e9 40 ff ff ff       	jmpq   400c80 <_init+0x20>

0000000000400d40 <close@plt>:
  400d40:	ff 25 2a 43 20 00    	jmpq   *0x20432a(%rip)        # 605070 <_GLOBAL_OFFSET_TABLE_+0x70>
  400d46:	68 0b 00 00 00       	pushq  $0xb
  400d4b:	e9 30 ff ff ff       	jmpq   400c80 <_init+0x20>

0000000000400d50 <read@plt>:
  400d50:	ff 25 22 43 20 00    	jmpq   *0x204322(%rip)        # 605078 <_GLOBAL_OFFSET_TABLE_+0x78>
  400d56:	68 0c 00 00 00       	pushq  $0xc
  400d5b:	e9 20 ff ff ff       	jmpq   400c80 <_init+0x20>

0000000000400d60 <__libc_start_main@plt>:
  400d60:	ff 25 1a 43 20 00    	jmpq   *0x20431a(%rip)        # 605080 <_GLOBAL_OFFSET_TABLE_+0x80>
  400d66:	68 0d 00 00 00       	pushq  $0xd
  400d6b:	e9 10 ff ff ff       	jmpq   400c80 <_init+0x20>

0000000000400d70 <signal@plt>:
  400d70:	ff 25 12 43 20 00    	jmpq   *0x204312(%rip)        # 605088 <_GLOBAL_OFFSET_TABLE_+0x88>
  400d76:	68 0e 00 00 00       	pushq  $0xe
  400d7b:	e9 00 ff ff ff       	jmpq   400c80 <_init+0x20>

0000000000400d80 <gethostbyname@plt>:
  400d80:	ff 25 0a 43 20 00    	jmpq   *0x20430a(%rip)        # 605090 <_GLOBAL_OFFSET_TABLE_+0x90>
  400d86:	68 0f 00 00 00       	pushq  $0xf
  400d8b:	e9 f0 fe ff ff       	jmpq   400c80 <_init+0x20>

0000000000400d90 <__memmove_chk@plt>:
  400d90:	ff 25 02 43 20 00    	jmpq   *0x204302(%rip)        # 605098 <_GLOBAL_OFFSET_TABLE_+0x98>
  400d96:	68 10 00 00 00       	pushq  $0x10
  400d9b:	e9 e0 fe ff ff       	jmpq   400c80 <_init+0x20>

0000000000400da0 <__gmon_start__@plt>:
  400da0:	ff 25 fa 42 20 00    	jmpq   *0x2042fa(%rip)        # 6050a0 <_GLOBAL_OFFSET_TABLE_+0xa0>
  400da6:	68 11 00 00 00       	pushq  $0x11
  400dab:	e9 d0 fe ff ff       	jmpq   400c80 <_init+0x20>

0000000000400db0 <strtol@plt>:
  400db0:	ff 25 f2 42 20 00    	jmpq   *0x2042f2(%rip)        # 6050a8 <_GLOBAL_OFFSET_TABLE_+0xa8>
  400db6:	68 12 00 00 00       	pushq  $0x12
  400dbb:	e9 c0 fe ff ff       	jmpq   400c80 <_init+0x20>

0000000000400dc0 <memcpy@plt>:
  400dc0:	ff 25 ea 42 20 00    	jmpq   *0x2042ea(%rip)        # 6050b0 <_GLOBAL_OFFSET_TABLE_+0xb0>
  400dc6:	68 13 00 00 00       	pushq  $0x13
  400dcb:	e9 b0 fe ff ff       	jmpq   400c80 <_init+0x20>

0000000000400dd0 <time@plt>:
  400dd0:	ff 25 e2 42 20 00    	jmpq   *0x2042e2(%rip)        # 6050b8 <_GLOBAL_OFFSET_TABLE_+0xb8>
  400dd6:	68 14 00 00 00       	pushq  $0x14
  400ddb:	e9 a0 fe ff ff       	jmpq   400c80 <_init+0x20>

0000000000400de0 <random@plt>:
  400de0:	ff 25 da 42 20 00    	jmpq   *0x2042da(%rip)        # 6050c0 <_GLOBAL_OFFSET_TABLE_+0xc0>
  400de6:	68 15 00 00 00       	pushq  $0x15
  400deb:	e9 90 fe ff ff       	jmpq   400c80 <_init+0x20>

0000000000400df0 <_IO_getc@plt>:
  400df0:	ff 25 d2 42 20 00    	jmpq   *0x2042d2(%rip)        # 6050c8 <_GLOBAL_OFFSET_TABLE_+0xc8>
  400df6:	68 16 00 00 00       	pushq  $0x16
  400dfb:	e9 80 fe ff ff       	jmpq   400c80 <_init+0x20>

0000000000400e00 <__isoc99_sscanf@plt>:
  400e00:	ff 25 ca 42 20 00    	jmpq   *0x2042ca(%rip)        # 6050d0 <_GLOBAL_OFFSET_TABLE_+0xd0>
  400e06:	68 17 00 00 00       	pushq  $0x17
  400e0b:	e9 70 fe ff ff       	jmpq   400c80 <_init+0x20>

0000000000400e10 <munmap@plt>:
  400e10:	ff 25 c2 42 20 00    	jmpq   *0x2042c2(%rip)        # 6050d8 <_GLOBAL_OFFSET_TABLE_+0xd8>
  400e16:	68 18 00 00 00       	pushq  $0x18
  400e1b:	e9 60 fe ff ff       	jmpq   400c80 <_init+0x20>

0000000000400e20 <__printf_chk@plt>:
  400e20:	ff 25 ba 42 20 00    	jmpq   *0x2042ba(%rip)        # 6050e0 <_GLOBAL_OFFSET_TABLE_+0xe0>
  400e26:	68 19 00 00 00       	pushq  $0x19
  400e2b:	e9 50 fe ff ff       	jmpq   400c80 <_init+0x20>

0000000000400e30 <fopen@plt>:
  400e30:	ff 25 b2 42 20 00    	jmpq   *0x2042b2(%rip)        # 6050e8 <_GLOBAL_OFFSET_TABLE_+0xe8>
  400e36:	68 1a 00 00 00       	pushq  $0x1a
  400e3b:	e9 40 fe ff ff       	jmpq   400c80 <_init+0x20>

0000000000400e40 <getopt@plt>:
  400e40:	ff 25 aa 42 20 00    	jmpq   *0x2042aa(%rip)        # 6050f0 <_GLOBAL_OFFSET_TABLE_+0xf0>
  400e46:	68 1b 00 00 00       	pushq  $0x1b
  400e4b:	e9 30 fe ff ff       	jmpq   400c80 <_init+0x20>

0000000000400e50 <strtoul@plt>:
  400e50:	ff 25 a2 42 20 00    	jmpq   *0x2042a2(%rip)        # 6050f8 <_GLOBAL_OFFSET_TABLE_+0xf8>
  400e56:	68 1c 00 00 00       	pushq  $0x1c
  400e5b:	e9 20 fe ff ff       	jmpq   400c80 <_init+0x20>

0000000000400e60 <gethostname@plt>:
  400e60:	ff 25 9a 42 20 00    	jmpq   *0x20429a(%rip)        # 605100 <_GLOBAL_OFFSET_TABLE_+0x100>
  400e66:	68 1d 00 00 00       	pushq  $0x1d
  400e6b:	e9 10 fe ff ff       	jmpq   400c80 <_init+0x20>

0000000000400e70 <exit@plt>:
  400e70:	ff 25 92 42 20 00    	jmpq   *0x204292(%rip)        # 605108 <_GLOBAL_OFFSET_TABLE_+0x108>
  400e76:	68 1e 00 00 00       	pushq  $0x1e
  400e7b:	e9 00 fe ff ff       	jmpq   400c80 <_init+0x20>

0000000000400e80 <connect@plt>:
  400e80:	ff 25 8a 42 20 00    	jmpq   *0x20428a(%rip)        # 605110 <_GLOBAL_OFFSET_TABLE_+0x110>
  400e86:	68 1f 00 00 00       	pushq  $0x1f
  400e8b:	e9 f0 fd ff ff       	jmpq   400c80 <_init+0x20>

0000000000400e90 <__fprintf_chk@plt>:
  400e90:	ff 25 82 42 20 00    	jmpq   *0x204282(%rip)        # 605118 <_GLOBAL_OFFSET_TABLE_+0x118>
  400e96:	68 20 00 00 00       	pushq  $0x20
  400e9b:	e9 e0 fd ff ff       	jmpq   400c80 <_init+0x20>

0000000000400ea0 <__sprintf_chk@plt>:
  400ea0:	ff 25 7a 42 20 00    	jmpq   *0x20427a(%rip)        # 605120 <_GLOBAL_OFFSET_TABLE_+0x120>
  400ea6:	68 21 00 00 00       	pushq  $0x21
  400eab:	e9 d0 fd ff ff       	jmpq   400c80 <_init+0x20>

0000000000400eb0 <socket@plt>:
  400eb0:	ff 25 72 42 20 00    	jmpq   *0x204272(%rip)        # 605128 <_GLOBAL_OFFSET_TABLE_+0x128>
  400eb6:	68 22 00 00 00       	pushq  $0x22
  400ebb:	e9 c0 fd ff ff       	jmpq   400c80 <_init+0x20>

Disassembly of section .text:

0000000000400ec0 <_start>:
  400ec0:	31 ed                	xor    %ebp,%ebp
  400ec2:	49 89 d1             	mov    %rdx,%r9
  400ec5:	5e                   	pop    %rsi
  400ec6:	48 89 e2             	mov    %rsp,%rdx
  400ec9:	48 83 e4 f0          	and    $0xfffffffffffffff0,%rsp
  400ecd:	50                   	push   %rax
  400ece:	54                   	push   %rsp
  400ecf:	49 c7 c0 d0 2e 40 00 	mov    $0x402ed0,%r8
  400ed6:	48 c7 c1 60 2e 40 00 	mov    $0x402e60,%rcx
  400edd:	48 c7 c7 bf 11 40 00 	mov    $0x4011bf,%rdi
  400ee4:	e8 77 fe ff ff       	callq  400d60 <__libc_start_main@plt>
  400ee9:	f4                   	hlt    
  400eea:	66 0f 1f 44 00 00    	nopw   0x0(%rax,%rax,1)

0000000000400ef0 <deregister_tm_clones>:
  400ef0:	b8 b7 54 60 00       	mov    $0x6054b7,%eax
  400ef5:	55                   	push   %rbp
  400ef6:	48 2d b0 54 60 00    	sub    $0x6054b0,%rax
  400efc:	48 83 f8 0e          	cmp    $0xe,%rax
  400f00:	48 89 e5             	mov    %rsp,%rbp
  400f03:	77 02                	ja     400f07 <deregister_tm_clones+0x17>
  400f05:	5d                   	pop    %rbp
  400f06:	c3                   	retq   
  400f07:	b8 00 00 00 00       	mov    $0x0,%eax
  400f0c:	48 85 c0             	test   %rax,%rax
  400f0f:	74 f4                	je     400f05 <deregister_tm_clones+0x15>
  400f11:	5d                   	pop    %rbp
  400f12:	bf b0 54 60 00       	mov    $0x6054b0,%edi
  400f17:	ff e0                	jmpq   *%rax
  400f19:	0f 1f 80 00 00 00 00 	nopl   0x0(%rax)

0000000000400f20 <register_tm_clones>:
  400f20:	b8 b0 54 60 00       	mov    $0x6054b0,%eax
  400f25:	55                   	push   %rbp
  400f26:	48 2d b0 54 60 00    	sub    $0x6054b0,%rax
  400f2c:	48 c1 f8 03          	sar    $0x3,%rax
  400f30:	48 89 e5             	mov    %rsp,%rbp
  400f33:	48 89 c2             	mov    %rax,%rdx
  400f36:	48 c1 ea 3f          	shr    $0x3f,%rdx
  400f3a:	48 01 d0             	add    %rdx,%rax
  400f3d:	48 d1 f8             	sar    %rax
  400f40:	75 02                	jne    400f44 <register_tm_clones+0x24>
  400f42:	5d                   	pop    %rbp
  400f43:	c3                   	retq   
  400f44:	ba 00 00 00 00       	mov    $0x0,%edx
  400f49:	48 85 d2             	test   %rdx,%rdx
  400f4c:	74 f4                	je     400f42 <register_tm_clones+0x22>
  400f4e:	5d                   	pop    %rbp
  400f4f:	48 89 c6             	mov    %rax,%rsi
  400f52:	bf b0 54 60 00       	mov    $0x6054b0,%edi
  400f57:	ff e2                	jmpq   *%rdx
  400f59:	0f 1f 80 00 00 00 00 	nopl   0x0(%rax)

0000000000400f60 <__do_global_dtors_aux>:
  400f60:	80 3d 89 45 20 00 00 	cmpb   $0x0,0x204589(%rip)        # 6054f0 <completed.6973>
  400f67:	75 11                	jne    400f7a <__do_global_dtors_aux+0x1a>
  400f69:	55                   	push   %rbp
  400f6a:	48 89 e5             	mov    %rsp,%rbp
  400f6d:	e8 7e ff ff ff       	callq  400ef0 <deregister_tm_clones>
  400f72:	5d                   	pop    %rbp
  400f73:	c6 05 76 45 20 00 01 	movb   $0x1,0x204576(%rip)        # 6054f0 <completed.6973>
  400f7a:	f3 c3                	repz retq 
  400f7c:	0f 1f 40 00          	nopl   0x0(%rax)

0000000000400f80 <frame_dummy>:
  400f80:	48 83 3d 98 3e 20 00 	cmpq   $0x0,0x203e98(%rip)        # 604e20 <__JCR_END__>
  400f87:	00 
  400f88:	74 1e                	je     400fa8 <frame_dummy+0x28>
  400f8a:	b8 00 00 00 00       	mov    $0x0,%eax
  400f8f:	48 85 c0             	test   %rax,%rax
  400f92:	74 14                	je     400fa8 <frame_dummy+0x28>
  400f94:	55                   	push   %rbp
  400f95:	bf 20 4e 60 00       	mov    $0x604e20,%edi
  400f9a:	48 89 e5             	mov    %rsp,%rbp
  400f9d:	ff d0                	callq  *%rax
  400f9f:	5d                   	pop    %rbp
  400fa0:	e9 7b ff ff ff       	jmpq   400f20 <register_tm_clones>
  400fa5:	0f 1f 00             	nopl   (%rax)
  400fa8:	e9 73 ff ff ff       	jmpq   400f20 <register_tm_clones>
  400fad:	0f 1f 00             	nopl   (%rax)

0000000000400fb0 <usage>:
  400fb0:	48 83 ec 08          	sub    $0x8,%rsp
  400fb4:	48 89 fa             	mov    %rdi,%rdx
  400fb7:	83 3d 6a 45 20 00 00 	cmpl   $0x0,0x20456a(%rip)        # 605528 <is_checker>
  400fbe:	74 3e                	je     400ffe <usage+0x4e>
  400fc0:	be e8 2e 40 00       	mov    $0x402ee8,%esi
  400fc5:	bf 01 00 00 00       	mov    $0x1,%edi
  400fca:	b8 00 00 00 00       	mov    $0x0,%eax
  400fcf:	e8 4c fe ff ff       	callq  400e20 <__printf_chk@plt>
  400fd4:	bf 20 2f 40 00       	mov    $0x402f20,%edi
  400fd9:	e8 02 fd ff ff       	callq  400ce0 <puts@plt>
  400fde:	bf 98 30 40 00       	mov    $0x403098,%edi
  400fe3:	e8 f8 fc ff ff       	callq  400ce0 <puts@plt>
  400fe8:	bf 48 2f 40 00       	mov    $0x402f48,%edi
  400fed:	e8 ee fc ff ff       	callq  400ce0 <puts@plt>
  400ff2:	bf b2 30 40 00       	mov    $0x4030b2,%edi
  400ff7:	e8 e4 fc ff ff       	callq  400ce0 <puts@plt>
  400ffc:	eb 32                	jmp    401030 <usage+0x80>
  400ffe:	be ce 30 40 00       	mov    $0x4030ce,%esi
  401003:	bf 01 00 00 00       	mov    $0x1,%edi
  401008:	b8 00 00 00 00       	mov    $0x0,%eax
  40100d:	e8 0e fe ff ff       	callq  400e20 <__printf_chk@plt>
  401012:	bf 70 2f 40 00       	mov    $0x402f70,%edi
  401017:	e8 c4 fc ff ff       	callq  400ce0 <puts@plt>
  40101c:	bf 98 2f 40 00       	mov    $0x402f98,%edi
  401021:	e8 ba fc ff ff       	callq  400ce0 <puts@plt>
  401026:	bf ec 30 40 00       	mov    $0x4030ec,%edi
  40102b:	e8 b0 fc ff ff       	callq  400ce0 <puts@plt>
  401030:	bf 00 00 00 00       	mov    $0x0,%edi
  401035:	e8 36 fe ff ff       	callq  400e70 <exit@plt>

000000000040103a <initialize_target>:
  40103a:	55                   	push   %rbp
  40103b:	53                   	push   %rbx
  40103c:	48 81 ec 18 21 00 00 	sub    $0x2118,%rsp
  401043:	89 f5                	mov    %esi,%ebp
  401045:	64 48 8b 04 25 28 00 	mov    %fs:0x28,%rax
  40104c:	00 00 
  40104e:	48 89 84 24 08 21 00 	mov    %rax,0x2108(%rsp)
  401055:	00 
  401056:	31 c0                	xor    %eax,%eax
  401058:	89 3d ba 44 20 00    	mov    %edi,0x2044ba(%rip)        # 605518 <check_level>
  40105e:	8b 3d 04 41 20 00    	mov    0x204104(%rip),%edi        # 605168 <target_id>
  401064:	e8 ca 1d 00 00       	callq  402e33 <gencookie>
  401069:	89 05 b5 44 20 00    	mov    %eax,0x2044b5(%rip)        # 605524 <cookie>
  40106f:	89 c7                	mov    %eax,%edi
  401071:	e8 bd 1d 00 00       	callq  402e33 <gencookie>
  401076:	89 05 a4 44 20 00    	mov    %eax,0x2044a4(%rip)        # 605520 <authkey>
  40107c:	8b 05 e6 40 20 00    	mov    0x2040e6(%rip),%eax        # 605168 <target_id>
  401082:	8d 78 01             	lea    0x1(%rax),%edi
  401085:	e8 26 fc ff ff       	callq  400cb0 <srandom@plt>
  40108a:	e8 51 fd ff ff       	callq  400de0 <random@plt>
  40108f:	89 c7                	mov    %eax,%edi
  401091:	e8 03 03 00 00       	callq  401399 <scramble>
  401096:	89 c3                	mov    %eax,%ebx
  401098:	85 ed                	test   %ebp,%ebp
  40109a:	74 18                	je     4010b4 <initialize_target+0x7a>
  40109c:	bf 00 00 00 00       	mov    $0x0,%edi
  4010a1:	e8 2a fd ff ff       	callq  400dd0 <time@plt>
  4010a6:	89 c7                	mov    %eax,%edi
  4010a8:	e8 03 fc ff ff       	callq  400cb0 <srandom@plt>
  4010ad:	e8 2e fd ff ff       	callq  400de0 <random@plt>
  4010b2:	eb 05                	jmp    4010b9 <initialize_target+0x7f>
  4010b4:	b8 00 00 00 00       	mov    $0x0,%eax
  4010b9:	01 c3                	add    %eax,%ebx
  4010bb:	0f b7 db             	movzwl %bx,%ebx
  4010be:	8d 04 dd 00 01 00 00 	lea    0x100(,%rbx,8),%eax
  4010c5:	89 c0                	mov    %eax,%eax
  4010c7:	48 89 05 d2 43 20 00 	mov    %rax,0x2043d2(%rip)        # 6054a0 <buf_offset>
  4010ce:	c6 05 73 50 20 00 72 	movb   $0x72,0x205073(%rip)        # 606148 <target_prefix>
  4010d5:	83 3d cc 43 20 00 00 	cmpl   $0x0,0x2043cc(%rip)        # 6054a8 <notify>
  4010dc:	0f 84 bb 00 00 00    	je     40119d <initialize_target+0x163>
  4010e2:	83 3d 3f 44 20 00 00 	cmpl   $0x0,0x20443f(%rip)        # 605528 <is_checker>
  4010e9:	0f 85 ae 00 00 00    	jne    40119d <initialize_target+0x163>
  4010ef:	be 00 01 00 00       	mov    $0x100,%esi
  4010f4:	48 89 e7             	mov    %rsp,%rdi
  4010f7:	e8 64 fd ff ff       	callq  400e60 <gethostname@plt>
  4010fc:	85 c0                	test   %eax,%eax
  4010fe:	74 25                	je     401125 <initialize_target+0xeb>
  401100:	bf c8 2f 40 00       	mov    $0x402fc8,%edi
  401105:	e8 d6 fb ff ff       	callq  400ce0 <puts@plt>
  40110a:	bf 08 00 00 00       	mov    $0x8,%edi
  40110f:	e8 5c fd ff ff       	callq  400e70 <exit@plt>
  401114:	48 89 e6             	mov    %rsp,%rsi
  401117:	e8 74 fb ff ff       	callq  400c90 <strcasecmp@plt>
  40111c:	85 c0                	test   %eax,%eax
  40111e:	74 21                	je     401141 <initialize_target+0x107>
  401120:	83 c3 01             	add    $0x1,%ebx
  401123:	eb 05                	jmp    40112a <initialize_target+0xf0>
  401125:	bb 00 00 00 00       	mov    $0x0,%ebx
  40112a:	48 63 c3             	movslq %ebx,%rax
  40112d:	48 8b 3c c5 80 51 60 	mov    0x605180(,%rax,8),%rdi
  401134:	00 
  401135:	48 85 ff             	test   %rdi,%rdi
  401138:	75 da                	jne    401114 <initialize_target+0xda>
  40113a:	b8 00 00 00 00       	mov    $0x0,%eax
  40113f:	eb 05                	jmp    401146 <initialize_target+0x10c>
  401141:	b8 01 00 00 00       	mov    $0x1,%eax
  401146:	85 c0                	test   %eax,%eax
  401148:	75 1c                	jne    401166 <initialize_target+0x12c>
  40114a:	48 89 e2             	mov    %rsp,%rdx
  40114d:	be 00 30 40 00       	mov    $0x403000,%esi
  401152:	bf 01 00 00 00       	mov    $0x1,%edi
  401157:	e8 c4 fc ff ff       	callq  400e20 <__printf_chk@plt>
  40115c:	bf 08 00 00 00       	mov    $0x8,%edi
  401161:	e8 0a fd ff ff       	callq  400e70 <exit@plt>
  401166:	48 8d bc 24 00 01 00 	lea    0x100(%rsp),%rdi
  40116d:	00 
  40116e:	e8 28 1a 00 00       	callq  402b9b <init_driver>
  401173:	85 c0                	test   %eax,%eax
  401175:	79 26                	jns    40119d <initialize_target+0x163>
  401177:	48 8d 94 24 00 01 00 	lea    0x100(%rsp),%rdx
  40117e:	00 
  40117f:	be 40 30 40 00       	mov    $0x403040,%esi
  401184:	bf 01 00 00 00       	mov    $0x1,%edi
  401189:	b8 00 00 00 00       	mov    $0x0,%eax
  40118e:	e8 8d fc ff ff       	callq  400e20 <__printf_chk@plt>
  401193:	bf 08 00 00 00       	mov    $0x8,%edi
  401198:	e8 d3 fc ff ff       	callq  400e70 <exit@plt>
  40119d:	48 8b 84 24 08 21 00 	mov    0x2108(%rsp),%rax
  4011a4:	00 
  4011a5:	64 48 33 04 25 28 00 	xor    %fs:0x28,%rax
  4011ac:	00 00 
  4011ae:	74 05                	je     4011b5 <initialize_target+0x17b>
  4011b0:	e8 4b fb ff ff       	callq  400d00 <__stack_chk_fail@plt>
  4011b5:	48 81 c4 18 21 00 00 	add    $0x2118,%rsp
  4011bc:	5b                   	pop    %rbx
  4011bd:	5d                   	pop    %rbp
  4011be:	c3                   	retq   

00000000004011bf <main>:
  4011bf:	41 56                	push   %r14
  4011c1:	41 55                	push   %r13
  4011c3:	41 54                	push   %r12
  4011c5:	55                   	push   %rbp
  4011c6:	53                   	push   %rbx
  4011c7:	41 89 fc             	mov    %edi,%r12d
  4011ca:	48 89 f3             	mov    %rsi,%rbx
  4011cd:	be 0e 1f 40 00       	mov    $0x401f0e,%esi
  4011d2:	bf 0b 00 00 00       	mov    $0xb,%edi
  4011d7:	e8 94 fb ff ff       	callq  400d70 <signal@plt>
  4011dc:	be c0 1e 40 00       	mov    $0x401ec0,%esi
  4011e1:	bf 07 00 00 00       	mov    $0x7,%edi
  4011e6:	e8 85 fb ff ff       	callq  400d70 <signal@plt>
  4011eb:	be 5c 1f 40 00       	mov    $0x401f5c,%esi
  4011f0:	bf 04 00 00 00       	mov    $0x4,%edi
  4011f5:	e8 76 fb ff ff       	callq  400d70 <signal@plt>
  4011fa:	83 3d 27 43 20 00 00 	cmpl   $0x0,0x204327(%rip)        # 605528 <is_checker>
  401201:	74 20                	je     401223 <main+0x64>
  401203:	be aa 1f 40 00       	mov    $0x401faa,%esi
  401208:	bf 0e 00 00 00       	mov    $0xe,%edi
  40120d:	e8 5e fb ff ff       	callq  400d70 <signal@plt>
  401212:	bf 05 00 00 00       	mov    $0x5,%edi
  401217:	e8 14 fb ff ff       	callq  400d30 <alarm@plt>
  40121c:	bd 0a 31 40 00       	mov    $0x40310a,%ebp
  401221:	eb 05                	jmp    401228 <main+0x69>
  401223:	bd 05 31 40 00       	mov    $0x403105,%ebp
  401228:	48 8b 05 91 42 20 00 	mov    0x204291(%rip),%rax        # 6054c0 <stdin@@GLIBC_2.2.5>
  40122f:	48 89 05 da 42 20 00 	mov    %rax,0x2042da(%rip)        # 605510 <infile>
  401236:	41 bd 00 00 00 00    	mov    $0x0,%r13d
  40123c:	41 be 00 00 00 00    	mov    $0x0,%r14d
  401242:	e9 c6 00 00 00       	jmpq   40130d <main+0x14e>
  401247:	83 e8 61             	sub    $0x61,%eax
  40124a:	3c 10                	cmp    $0x10,%al
  40124c:	0f 87 9c 00 00 00    	ja     4012ee <main+0x12f>
  401252:	0f b6 c0             	movzbl %al,%eax
  401255:	ff 24 c5 50 31 40 00 	jmpq   *0x403150(,%rax,8)
  40125c:	48 8b 3b             	mov    (%rbx),%rdi
  40125f:	e8 4c fd ff ff       	callq  400fb0 <usage>
  401264:	be de 31 40 00       	mov    $0x4031de,%esi
  401269:	48 8b 3d 70 42 20 00 	mov    0x204270(%rip),%rdi        # 6054e0 <optarg@@GLIBC_2.2.5>
  401270:	e8 bb fb ff ff       	callq  400e30 <fopen@plt>
  401275:	48 89 05 94 42 20 00 	mov    %rax,0x204294(%rip)        # 605510 <infile>
  40127c:	48 85 c0             	test   %rax,%rax
  40127f:	0f 85 88 00 00 00    	jne    40130d <main+0x14e>
  401285:	48 8b 0d 54 42 20 00 	mov    0x204254(%rip),%rcx        # 6054e0 <optarg@@GLIBC_2.2.5>
  40128c:	ba 12 31 40 00       	mov    $0x403112,%edx
  401291:	be 01 00 00 00       	mov    $0x1,%esi
  401296:	48 8b 3d 4b 42 20 00 	mov    0x20424b(%rip),%rdi        # 6054e8 <stderr@@GLIBC_2.2.5>
  40129d:	e8 ee fb ff ff       	callq  400e90 <__fprintf_chk@plt>
  4012a2:	b8 01 00 00 00       	mov    $0x1,%eax
  4012a7:	e9 e4 00 00 00       	jmpq   401390 <main+0x1d1>
  4012ac:	ba 10 00 00 00       	mov    $0x10,%edx
  4012b1:	be 00 00 00 00       	mov    $0x0,%esi
  4012b6:	48 8b 3d 23 42 20 00 	mov    0x204223(%rip),%rdi        # 6054e0 <optarg@@GLIBC_2.2.5>
  4012bd:	e8 8e fb ff ff       	callq  400e50 <strtoul@plt>
  4012c2:	41 89 c6             	mov    %eax,%r14d
  4012c5:	eb 46                	jmp    40130d <main+0x14e>
  4012c7:	ba 0a 00 00 00       	mov    $0xa,%edx
  4012cc:	be 00 00 00 00       	mov    $0x0,%esi
  4012d1:	48 8b 3d 08 42 20 00 	mov    0x204208(%rip),%rdi        # 6054e0 <optarg@@GLIBC_2.2.5>
  4012d8:	e8 d3 fa ff ff       	callq  400db0 <strtol@plt>
  4012dd:	41 89 c5             	mov    %eax,%r13d
  4012e0:	eb 2b                	jmp    40130d <main+0x14e>
  4012e2:	c7 05 bc 41 20 00 00 	movl   $0x0,0x2041bc(%rip)        # 6054a8 <notify>
  4012e9:	00 00 00 
  4012ec:	eb 1f                	jmp    40130d <main+0x14e>
  4012ee:	0f be d2             	movsbl %dl,%edx
  4012f1:	be 2f 31 40 00       	mov    $0x40312f,%esi
  4012f6:	bf 01 00 00 00       	mov    $0x1,%edi
  4012fb:	b8 00 00 00 00       	mov    $0x0,%eax
  401300:	e8 1b fb ff ff       	callq  400e20 <__printf_chk@plt>
  401305:	48 8b 3b             	mov    (%rbx),%rdi
  401308:	e8 a3 fc ff ff       	callq  400fb0 <usage>
  40130d:	48 89 ea             	mov    %rbp,%rdx
  401310:	48 89 de             	mov    %rbx,%rsi
  401313:	44 89 e7             	mov    %r12d,%edi
  401316:	e8 25 fb ff ff       	callq  400e40 <getopt@plt>
  40131b:	89 c2                	mov    %eax,%edx
  40131d:	3c ff                	cmp    $0xff,%al
  40131f:	0f 85 22 ff ff ff    	jne    401247 <main+0x88>
  401325:	be 01 00 00 00       	mov    $0x1,%esi
  40132a:	44 89 ef             	mov    %r13d,%edi
  40132d:	e8 08 fd ff ff       	callq  40103a <initialize_target>
  401332:	83 3d ef 41 20 00 00 	cmpl   $0x0,0x2041ef(%rip)        # 605528 <is_checker>
  401339:	74 2a                	je     401365 <main+0x1a6>
  40133b:	44 3b 35 de 41 20 00 	cmp    0x2041de(%rip),%r14d        # 605520 <authkey>
  401342:	74 21                	je     401365 <main+0x1a6>
  401344:	44 89 f2             	mov    %r14d,%edx
  401347:	be 68 30 40 00       	mov    $0x403068,%esi
  40134c:	bf 01 00 00 00       	mov    $0x1,%edi
  401351:	b8 00 00 00 00       	mov    $0x0,%eax
  401356:	e8 c5 fa ff ff       	callq  400e20 <__printf_chk@plt>
  40135b:	b8 00 00 00 00       	mov    $0x0,%eax
  401360:	e8 e6 07 00 00       	callq  401b4b <check_fail>
  401365:	8b 15 b9 41 20 00    	mov    0x2041b9(%rip),%edx        # 605524 <cookie>
  40136b:	be 42 31 40 00       	mov    $0x403142,%esi
  401370:	bf 01 00 00 00       	mov    $0x1,%edi
  401375:	b8 00 00 00 00       	mov    $0x0,%eax
  40137a:	e8 a1 fa ff ff       	callq  400e20 <__printf_chk@plt>
  40137f:	48 8b 3d 1a 41 20 00 	mov    0x20411a(%rip),%rdi        # 6054a0 <buf_offset>
  401386:	e8 72 0c 00 00       	callq  401ffd <launch>
  40138b:	b8 00 00 00 00       	mov    $0x0,%eax
  401390:	5b                   	pop    %rbx
  401391:	5d                   	pop    %rbp
  401392:	41 5c                	pop    %r12
  401394:	41 5d                	pop    %r13
  401396:	41 5e                	pop    %r14
  401398:	c3                   	retq   

0000000000401399 <scramble>:
  401399:	b8 00 00 00 00       	mov    $0x0,%eax
  40139e:	eb 11                	jmp    4013b1 <scramble+0x18>
  4013a0:	69 c8 9e c8 00 00    	imul   $0xc89e,%eax,%ecx
  4013a6:	01 f9                	add    %edi,%ecx
  4013a8:	89 c2                	mov    %eax,%edx
  4013aa:	89 4c 94 c8          	mov    %ecx,-0x38(%rsp,%rdx,4)
  4013ae:	83 c0 01             	add    $0x1,%eax
  4013b1:	83 f8 09             	cmp    $0x9,%eax
  4013b4:	76 ea                	jbe    4013a0 <scramble+0x7>
  4013b6:	8b 44 24 d8          	mov    -0x28(%rsp),%eax
  4013ba:	69 c0 1e 05 00 00    	imul   $0x51e,%eax,%eax
  4013c0:	89 44 24 d8          	mov    %eax,-0x28(%rsp)
  4013c4:	8b 44 24 d0          	mov    -0x30(%rsp),%eax
  4013c8:	69 c0 98 ab 00 00    	imul   $0xab98,%eax,%eax
  4013ce:	89 44 24 d0          	mov    %eax,-0x30(%rsp)
  4013d2:	8b 44 24 ec          	mov    -0x14(%rsp),%eax
  4013d6:	69 c0 20 b0 00 00    	imul   $0xb020,%eax,%eax
  4013dc:	89 44 24 ec          	mov    %eax,-0x14(%rsp)
  4013e0:	8b 44 24 ec          	mov    -0x14(%rsp),%eax
  4013e4:	69 c0 ef f2 00 00    	imul   $0xf2ef,%eax,%eax
  4013ea:	89 44 24 ec          	mov    %eax,-0x14(%rsp)
  4013ee:	8b 44 24 e4          	mov    -0x1c(%rsp),%eax
  4013f2:	69 c0 32 07 00 00    	imul   $0x732,%eax,%eax
  4013f8:	89 44 24 e4          	mov    %eax,-0x1c(%rsp)
  4013fc:	8b 44 24 d4          	mov    -0x2c(%rsp),%eax
  401400:	69 c0 dc d7 00 00    	imul   $0xd7dc,%eax,%eax
  401406:	89 44 24 d4          	mov    %eax,-0x2c(%rsp)
  40140a:	8b 44 24 cc          	mov    -0x34(%rsp),%eax
  40140e:	69 c0 33 9a 00 00    	imul   $0x9a33,%eax,%eax
  401414:	89 44 24 cc          	mov    %eax,-0x34(%rsp)
  401418:	8b 44 24 cc          	mov    -0x34(%rsp),%eax
  40141c:	69 c0 cf 57 00 00    	imul   $0x57cf,%eax,%eax
  401422:	89 44 24 cc          	mov    %eax,-0x34(%rsp)
  401426:	8b 44 24 d4          	mov    -0x2c(%rsp),%eax
  40142a:	69 c0 a8 13 00 00    	imul   $0x13a8,%eax,%eax
  401430:	89 44 24 d4          	mov    %eax,-0x2c(%rsp)
  401434:	8b 44 24 cc          	mov    -0x34(%rsp),%eax
  401438:	69 c0 09 8f 00 00    	imul   $0x8f09,%eax,%eax
  40143e:	89 44 24 cc          	mov    %eax,-0x34(%rsp)
  401442:	8b 44 24 e8          	mov    -0x18(%rsp),%eax
  401446:	69 c0 22 7a 00 00    	imul   $0x7a22,%eax,%eax
  40144c:	89 44 24 e8          	mov    %eax,-0x18(%rsp)
  401450:	8b 44 24 d0          	mov    -0x30(%rsp),%eax
  401454:	69 c0 ae 31 00 00    	imul   $0x31ae,%eax,%eax
  40145a:	89 44 24 d0          	mov    %eax,-0x30(%rsp)
  40145e:	8b 44 24 d4          	mov    -0x2c(%rsp),%eax
  401462:	69 c0 4d c8 00 00    	imul   $0xc84d,%eax,%eax
  401468:	89 44 24 d4          	mov    %eax,-0x2c(%rsp)
  40146c:	8b 44 24 ec          	mov    -0x14(%rsp),%eax
  401470:	69 c0 3a 24 00 00    	imul   $0x243a,%eax,%eax
  401476:	89 44 24 ec          	mov    %eax,-0x14(%rsp)
  40147a:	8b 44 24 e0          	mov    -0x20(%rsp),%eax
  40147e:	69 c0 37 73 00 00    	imul   $0x7337,%eax,%eax
  401484:	89 44 24 e0          	mov    %eax,-0x20(%rsp)
  401488:	8b 44 24 cc          	mov    -0x34(%rsp),%eax
  40148c:	69 c0 f9 0c 00 00    	imul   $0xcf9,%eax,%eax
  401492:	89 44 24 cc          	mov    %eax,-0x34(%rsp)
  401496:	8b 44 24 ec          	mov    -0x14(%rsp),%eax
  40149a:	69 c0 db d8 00 00    	imul   $0xd8db,%eax,%eax
  4014a0:	89 44 24 ec          	mov    %eax,-0x14(%rsp)
  4014a4:	8b 44 24 e4          	mov    -0x1c(%rsp),%eax
  4014a8:	69 c0 34 a5 00 00    	imul   $0xa534,%eax,%eax
  4014ae:	89 44 24 e4          	mov    %eax,-0x1c(%rsp)
  4014b2:	8b 44 24 cc          	mov    -0x34(%rsp),%eax
  4014b6:	69 c0 e4 90 00 00    	imul   $0x90e4,%eax,%eax
  4014bc:	89 44 24 cc          	mov    %eax,-0x34(%rsp)
  4014c0:	8b 44 24 e0          	mov    -0x20(%rsp),%eax
  4014c4:	69 c0 22 13 00 00    	imul   $0x1322,%eax,%eax
  4014ca:	89 44 24 e0          	mov    %eax,-0x20(%rsp)
  4014ce:	8b 44 24 dc          	mov    -0x24(%rsp),%eax
  4014d2:	69 c0 80 90 00 00    	imul   $0x9080,%eax,%eax
  4014d8:	89 44 24 dc          	mov    %eax,-0x24(%rsp)
  4014dc:	8b 44 24 c8          	mov    -0x38(%rsp),%eax
  4014e0:	69 c0 e9 7e 00 00    	imul   $0x7ee9,%eax,%eax
  4014e6:	89 44 24 c8          	mov    %eax,-0x38(%rsp)
  4014ea:	8b 44 24 e4          	mov    -0x1c(%rsp),%eax
  4014ee:	69 c0 2a 9d 00 00    	imul   $0x9d2a,%eax,%eax
  4014f4:	89 44 24 e4          	mov    %eax,-0x1c(%rsp)
  4014f8:	8b 44 24 d0          	mov    -0x30(%rsp),%eax
  4014fc:	69 c0 fd 9e 00 00    	imul   $0x9efd,%eax,%eax
  401502:	89 44 24 d0          	mov    %eax,-0x30(%rsp)
  401506:	8b 44 24 e0          	mov    -0x20(%rsp),%eax
  40150a:	69 c0 a0 15 00 00    	imul   $0x15a0,%eax,%eax
  401510:	89 44 24 e0          	mov    %eax,-0x20(%rsp)
  401514:	8b 44 24 e0          	mov    -0x20(%rsp),%eax
  401518:	69 c0 70 81 00 00    	imul   $0x8170,%eax,%eax
  40151e:	89 44 24 e0          	mov    %eax,-0x20(%rsp)
  401522:	8b 44 24 c8          	mov    -0x38(%rsp),%eax
  401526:	69 c0 09 d2 00 00    	imul   $0xd209,%eax,%eax
  40152c:	89 44 24 c8          	mov    %eax,-0x38(%rsp)
  401530:	8b 44 24 c8          	mov    -0x38(%rsp),%eax
  401534:	69 c0 40 96 00 00    	imul   $0x9640,%eax,%eax
  40153a:	89 44 24 c8          	mov    %eax,-0x38(%rsp)
  40153e:	8b 44 24 d8          	mov    -0x28(%rsp),%eax
  401542:	69 c0 40 e6 00 00    	imul   $0xe640,%eax,%eax
  401548:	89 44 24 d8          	mov    %eax,-0x28(%rsp)
  40154c:	8b 44 24 d4          	mov    -0x2c(%rsp),%eax
  401550:	69 c0 b1 de 00 00    	imul   $0xdeb1,%eax,%eax
  401556:	89 44 24 d4          	mov    %eax,-0x2c(%rsp)
  40155a:	8b 44 24 e4          	mov    -0x1c(%rsp),%eax
  40155e:	69 c0 c3 44 00 00    	imul   $0x44c3,%eax,%eax
  401564:	89 44 24 e4          	mov    %eax,-0x1c(%rsp)
  401568:	8b 44 24 e0          	mov    -0x20(%rsp),%eax
  40156c:	69 c0 cc d1 00 00    	imul   $0xd1cc,%eax,%eax
  401572:	89 44 24 e0          	mov    %eax,-0x20(%rsp)
  401576:	8b 44 24 c8          	mov    -0x38(%rsp),%eax
  40157a:	69 c0 3c a4 00 00    	imul   $0xa43c,%eax,%eax
  401580:	89 44 24 c8          	mov    %eax,-0x38(%rsp)
  401584:	8b 44 24 ec          	mov    -0x14(%rsp),%eax
  401588:	69 c0 99 a6 00 00    	imul   $0xa699,%eax,%eax
  40158e:	89 44 24 ec          	mov    %eax,-0x14(%rsp)
  401592:	8b 44 24 d0          	mov    -0x30(%rsp),%eax
  401596:	69 c0 24 0f 00 00    	imul   $0xf24,%eax,%eax
  40159c:	89 44 24 d0          	mov    %eax,-0x30(%rsp)
  4015a0:	8b 44 24 d8          	mov    -0x28(%rsp),%eax
  4015a4:	69 c0 37 cd 00 00    	imul   $0xcd37,%eax,%eax
  4015aa:	89 44 24 d8          	mov    %eax,-0x28(%rsp)
  4015ae:	8b 44 24 e4          	mov    -0x1c(%rsp),%eax
  4015b2:	69 c0 bb a4 00 00    	imul   $0xa4bb,%eax,%eax
  4015b8:	89 44 24 e4          	mov    %eax,-0x1c(%rsp)
  4015bc:	8b 44 24 d4          	mov    -0x2c(%rsp),%eax
  4015c0:	69 c0 58 ca 00 00    	imul   $0xca58,%eax,%eax
  4015c6:	89 44 24 d4          	mov    %eax,-0x2c(%rsp)
  4015ca:	8b 44 24 e8          	mov    -0x18(%rsp),%eax
  4015ce:	69 c0 da 22 00 00    	imul   $0x22da,%eax,%eax
  4015d4:	89 44 24 e8          	mov    %eax,-0x18(%rsp)
  4015d8:	8b 44 24 e8          	mov    -0x18(%rsp),%eax
  4015dc:	69 c0 b8 f2 00 00    	imul   $0xf2b8,%eax,%eax
  4015e2:	89 44 24 e8          	mov    %eax,-0x18(%rsp)
  4015e6:	8b 44 24 e0          	mov    -0x20(%rsp),%eax
  4015ea:	69 c0 5c 97 00 00    	imul   $0x975c,%eax,%eax
  4015f0:	89 44 24 e0          	mov    %eax,-0x20(%rsp)
  4015f4:	8b 44 24 dc          	mov    -0x24(%rsp),%eax
  4015f8:	69 c0 3d c8 00 00    	imul   $0xc83d,%eax,%eax
  4015fe:	89 44 24 dc          	mov    %eax,-0x24(%rsp)
  401602:	8b 44 24 dc          	mov    -0x24(%rsp),%eax
  401606:	69 c0 46 27 00 00    	imul   $0x2746,%eax,%eax
  40160c:	89 44 24 dc          	mov    %eax,-0x24(%rsp)
  401610:	8b 44 24 d8          	mov    -0x28(%rsp),%eax
  401614:	69 c0 bc 03 00 00    	imul   $0x3bc,%eax,%eax
  40161a:	89 44 24 d8          	mov    %eax,-0x28(%rsp)
  40161e:	8b 44 24 ec          	mov    -0x14(%rsp),%eax
  401622:	69 c0 f8 18 00 00    	imul   $0x18f8,%eax,%eax
  401628:	89 44 24 ec          	mov    %eax,-0x14(%rsp)
  40162c:	8b 44 24 d4          	mov    -0x2c(%rsp),%eax
  401630:	69 c0 fd 66 00 00    	imul   $0x66fd,%eax,%eax
  401636:	89 44 24 d4          	mov    %eax,-0x2c(%rsp)
  40163a:	8b 44 24 d8          	mov    -0x28(%rsp),%eax
  40163e:	69 c0 18 ce 00 00    	imul   $0xce18,%eax,%eax
  401644:	89 44 24 d8          	mov    %eax,-0x28(%rsp)
  401648:	8b 44 24 e4          	mov    -0x1c(%rsp),%eax
  40164c:	69 c0 59 7b 00 00    	imul   $0x7b59,%eax,%eax
  401652:	89 44 24 e4          	mov    %eax,-0x1c(%rsp)
  401656:	8b 44 24 d8          	mov    -0x28(%rsp),%eax
  40165a:	69 c0 ca af 00 00    	imul   $0xafca,%eax,%eax
  401660:	89 44 24 d8          	mov    %eax,-0x28(%rsp)
  401664:	8b 44 24 c8          	mov    -0x38(%rsp),%eax
  401668:	69 c0 76 a7 00 00    	imul   $0xa776,%eax,%eax
  40166e:	89 44 24 c8          	mov    %eax,-0x38(%rsp)
  401672:	8b 44 24 d4          	mov    -0x2c(%rsp),%eax
  401676:	69 c0 ae db 00 00    	imul   $0xdbae,%eax,%eax
  40167c:	89 44 24 d4          	mov    %eax,-0x2c(%rsp)
  401680:	8b 44 24 dc          	mov    -0x24(%rsp),%eax
  401684:	69 c0 93 5e 00 00    	imul   $0x5e93,%eax,%eax
  40168a:	89 44 24 dc          	mov    %eax,-0x24(%rsp)
  40168e:	8b 44 24 cc          	mov    -0x34(%rsp),%eax
  401692:	69 c0 ce c0 00 00    	imul   $0xc0ce,%eax,%eax
  401698:	89 44 24 cc          	mov    %eax,-0x34(%rsp)
  40169c:	8b 44 24 e0          	mov    -0x20(%rsp),%eax
  4016a0:	69 c0 4f c2 00 00    	imul   $0xc24f,%eax,%eax
  4016a6:	89 44 24 e0          	mov    %eax,-0x20(%rsp)
  4016aa:	8b 44 24 cc          	mov    -0x34(%rsp),%eax
  4016ae:	69 c0 41 92 00 00    	imul   $0x9241,%eax,%eax
  4016b4:	89 44 24 cc          	mov    %eax,-0x34(%rsp)
  4016b8:	8b 44 24 e8          	mov    -0x18(%rsp),%eax
  4016bc:	69 c0 23 1c 00 00    	imul   $0x1c23,%eax,%eax
  4016c2:	89 44 24 e8          	mov    %eax,-0x18(%rsp)
  4016c6:	8b 44 24 d0          	mov    -0x30(%rsp),%eax
  4016ca:	69 c0 2f 29 00 00    	imul   $0x292f,%eax,%eax
  4016d0:	89 44 24 d0          	mov    %eax,-0x30(%rsp)
  4016d4:	8b 44 24 e4          	mov    -0x1c(%rsp),%eax
  4016d8:	69 c0 03 93 00 00    	imul   $0x9303,%eax,%eax
  4016de:	89 44 24 e4          	mov    %eax,-0x1c(%rsp)
  4016e2:	8b 44 24 d4          	mov    -0x2c(%rsp),%eax
  4016e6:	69 c0 dd 42 00 00    	imul   $0x42dd,%eax,%eax
  4016ec:	89 44 24 d4          	mov    %eax,-0x2c(%rsp)
  4016f0:	8b 44 24 cc          	mov    -0x34(%rsp),%eax
  4016f4:	69 c0 fc 5d 00 00    	imul   $0x5dfc,%eax,%eax
  4016fa:	89 44 24 cc          	mov    %eax,-0x34(%rsp)
  4016fe:	8b 44 24 d4          	mov    -0x2c(%rsp),%eax
  401702:	69 c0 2d 79 00 00    	imul   $0x792d,%eax,%eax
  401708:	89 44 24 d4          	mov    %eax,-0x2c(%rsp)
  40170c:	8b 44 24 cc          	mov    -0x34(%rsp),%eax
  401710:	69 c0 90 b9 00 00    	imul   $0xb990,%eax,%eax
  401716:	89 44 24 cc          	mov    %eax,-0x34(%rsp)
  40171a:	8b 44 24 e4          	mov    -0x1c(%rsp),%eax
  40171e:	69 c0 c3 fd 00 00    	imul   $0xfdc3,%eax,%eax
  401724:	89 44 24 e4          	mov    %eax,-0x1c(%rsp)
  401728:	8b 44 24 e0          	mov    -0x20(%rsp),%eax
  40172c:	69 c0 9a b9 00 00    	imul   $0xb99a,%eax,%eax
  401732:	89 44 24 e0          	mov    %eax,-0x20(%rsp)
  401736:	8b 44 24 e8          	mov    -0x18(%rsp),%eax
  40173a:	69 c0 dc 56 00 00    	imul   $0x56dc,%eax,%eax
  401740:	89 44 24 e8          	mov    %eax,-0x18(%rsp)
  401744:	8b 44 24 c8          	mov    -0x38(%rsp),%eax
  401748:	69 c0 7c 6c 00 00    	imul   $0x6c7c,%eax,%eax
  40174e:	89 44 24 c8          	mov    %eax,-0x38(%rsp)
  401752:	8b 44 24 dc          	mov    -0x24(%rsp),%eax
  401756:	69 c0 be d5 00 00    	imul   $0xd5be,%eax,%eax
  40175c:	89 44 24 dc          	mov    %eax,-0x24(%rsp)
  401760:	8b 44 24 d8          	mov    -0x28(%rsp),%eax
  401764:	69 c0 f4 b2 00 00    	imul   $0xb2f4,%eax,%eax
  40176a:	89 44 24 d8          	mov    %eax,-0x28(%rsp)
  40176e:	8b 44 24 cc          	mov    -0x34(%rsp),%eax
  401772:	69 c0 fb f3 00 00    	imul   $0xf3fb,%eax,%eax
  401778:	89 44 24 cc          	mov    %eax,-0x34(%rsp)
  40177c:	8b 44 24 c8          	mov    -0x38(%rsp),%eax
  401780:	69 c0 35 7a 00 00    	imul   $0x7a35,%eax,%eax
  401786:	89 44 24 c8          	mov    %eax,-0x38(%rsp)
  40178a:	8b 44 24 e8          	mov    -0x18(%rsp),%eax
  40178e:	69 c0 4a 2a 00 00    	imul   $0x2a4a,%eax,%eax
  401794:	89 44 24 e8          	mov    %eax,-0x18(%rsp)
  401798:	8b 44 24 d4          	mov    -0x2c(%rsp),%eax
  40179c:	69 c0 da af 00 00    	imul   $0xafda,%eax,%eax
  4017a2:	89 44 24 d4          	mov    %eax,-0x2c(%rsp)
  4017a6:	8b 44 24 e0          	mov    -0x20(%rsp),%eax
  4017aa:	69 c0 b8 7a 00 00    	imul   $0x7ab8,%eax,%eax
  4017b0:	89 44 24 e0          	mov    %eax,-0x20(%rsp)
  4017b4:	ba 00 00 00 00       	mov    $0x0,%edx
  4017b9:	b8 00 00 00 00       	mov    $0x0,%eax
  4017be:	eb 0b                	jmp    4017cb <scramble+0x432>
  4017c0:	89 d1                	mov    %edx,%ecx
  4017c2:	8b 4c 8c c8          	mov    -0x38(%rsp,%rcx,4),%ecx
  4017c6:	01 c8                	add    %ecx,%eax
  4017c8:	83 c2 01             	add    $0x1,%edx
  4017cb:	83 fa 09             	cmp    $0x9,%edx
  4017ce:	76 f0                	jbe    4017c0 <scramble+0x427>
  4017d0:	f3 c3                	repz retq 

00000000004017d2 <getbuf>:
  4017d2:	48 83 ec 28          	sub    $0x28,%rsp
  4017d6:	48 89 e7             	mov    %rsp,%rdi
  4017d9:	e8 a2 03 00 00       	callq  401b80 <Gets>
  4017de:	b8 01 00 00 00       	mov    $0x1,%eax
  4017e3:	48 83 c4 28          	add    $0x28,%rsp
  4017e7:	c3                   	retq   

00000000004017e8 <touch1>:
  4017e8:	48 83 ec 08          	sub    $0x8,%rsp
  4017ec:	c7 05 26 3d 20 00 01 	movl   $0x1,0x203d26(%rip)        # 60551c <vlevel>
  4017f3:	00 00 00 
  4017f6:	bf 70 37 40 00       	mov    $0x403770,%edi
  4017fb:	e8 e0 f4 ff ff       	callq  400ce0 <puts@plt>
  401800:	bf 01 00 00 00       	mov    $0x1,%edi
  401805:	e8 cc 05 00 00       	callq  401dd6 <validate>
  40180a:	bf 00 00 00 00       	mov    $0x0,%edi
  40180f:	e8 5c f6 ff ff       	callq  400e70 <exit@plt>

0000000000401814 <touch2>:
  401814:	48 83 ec 08          	sub    $0x8,%rsp
  401818:	89 fa                	mov    %edi,%edx
  40181a:	c7 05 f8 3c 20 00 02 	movl   $0x2,0x203cf8(%rip)        # 60551c <vlevel>
  401821:	00 00 00 
  401824:	3b 3d fa 3c 20 00    	cmp    0x203cfa(%rip),%edi        # 605524 <cookie>
  40182a:	75 20                	jne    40184c <touch2+0x38>
  40182c:	be 98 37 40 00       	mov    $0x403798,%esi
  401831:	bf 01 00 00 00       	mov    $0x1,%edi
  401836:	b8 00 00 00 00       	mov    $0x0,%eax
  40183b:	e8 e0 f5 ff ff       	callq  400e20 <__printf_chk@plt>
  401840:	bf 02 00 00 00       	mov    $0x2,%edi
  401845:	e8 8c 05 00 00       	callq  401dd6 <validate>
  40184a:	eb 1e                	jmp    40186a <touch2+0x56>
  40184c:	be c0 37 40 00       	mov    $0x4037c0,%esi
  401851:	bf 01 00 00 00       	mov    $0x1,%edi
  401856:	b8 00 00 00 00       	mov    $0x0,%eax
  40185b:	e8 c0 f5 ff ff       	callq  400e20 <__printf_chk@plt>
  401860:	bf 02 00 00 00       	mov    $0x2,%edi
  401865:	e8 2e 06 00 00       	callq  401e98 <fail>
  40186a:	bf 00 00 00 00       	mov    $0x0,%edi
  40186f:	e8 fc f5 ff ff       	callq  400e70 <exit@plt>

0000000000401874 <hexmatch>:
  401874:	41 54                	push   %r12
  401876:	55                   	push   %rbp
  401877:	53                   	push   %rbx
  401878:	48 83 c4 80          	add    $0xffffffffffffff80,%rsp
  40187c:	41 89 fc             	mov    %edi,%r12d
  40187f:	48 89 f5             	mov    %rsi,%rbp
  401882:	64 48 8b 04 25 28 00 	mov    %fs:0x28,%rax
  401889:	00 00 
  40188b:	48 89 44 24 78       	mov    %rax,0x78(%rsp)
  401890:	31 c0                	xor    %eax,%eax
  401892:	e8 49 f5 ff ff       	callq  400de0 <random@plt>
  401897:	48 89 c1             	mov    %rax,%rcx
  40189a:	48 ba 0b d7 a3 70 3d 	movabs $0xa3d70a3d70a3d70b,%rdx
  4018a1:	0a d7 a3 
  4018a4:	48 f7 ea             	imul   %rdx
  4018a7:	48 01 ca             	add    %rcx,%rdx
  4018aa:	48 c1 fa 06          	sar    $0x6,%rdx
  4018ae:	48 89 c8             	mov    %rcx,%rax
  4018b1:	48 c1 f8 3f          	sar    $0x3f,%rax
  4018b5:	48 29 c2             	sub    %rax,%rdx
  4018b8:	48 8d 04 92          	lea    (%rdx,%rdx,4),%rax
  4018bc:	48 8d 04 80          	lea    (%rax,%rax,4),%rax
  4018c0:	48 c1 e0 02          	shl    $0x2,%rax
  4018c4:	48 29 c1             	sub    %rax,%rcx
  4018c7:	48 8d 1c 0c          	lea    (%rsp,%rcx,1),%rbx
  4018cb:	45 89 e0             	mov    %r12d,%r8d
  4018ce:	b9 8d 37 40 00       	mov    $0x40378d,%ecx
  4018d3:	48 c7 c2 ff ff ff ff 	mov    $0xffffffffffffffff,%rdx
  4018da:	be 01 00 00 00       	mov    $0x1,%esi
  4018df:	48 89 df             	mov    %rbx,%rdi
  4018e2:	b8 00 00 00 00       	mov    $0x0,%eax
  4018e7:	e8 b4 f5 ff ff       	callq  400ea0 <__sprintf_chk@plt>
  4018ec:	ba 09 00 00 00       	mov    $0x9,%edx
  4018f1:	48 89 de             	mov    %rbx,%rsi
  4018f4:	48 89 ef             	mov    %rbp,%rdi
  4018f7:	e8 c4 f3 ff ff       	callq  400cc0 <strncmp@plt>
  4018fc:	85 c0                	test   %eax,%eax
  4018fe:	0f 94 c0             	sete   %al
  401901:	0f b6 c0             	movzbl %al,%eax
  401904:	48 8b 74 24 78       	mov    0x78(%rsp),%rsi
  401909:	64 48 33 34 25 28 00 	xor    %fs:0x28,%rsi
  401910:	00 00 
  401912:	74 05                	je     401919 <hexmatch+0xa5>
  401914:	e8 e7 f3 ff ff       	callq  400d00 <__stack_chk_fail@plt>
  401919:	48 83 ec 80          	sub    $0xffffffffffffff80,%rsp
  40191d:	5b                   	pop    %rbx
  40191e:	5d                   	pop    %rbp
  40191f:	41 5c                	pop    %r12
  401921:	c3                   	retq   

0000000000401922 <touch3>:
  401922:	53                   	push   %rbx
  401923:	48 89 fb             	mov    %rdi,%rbx
  401926:	c7 05 ec 3b 20 00 03 	movl   $0x3,0x203bec(%rip)        # 60551c <vlevel>
  40192d:	00 00 00 
  401930:	48 89 fe             	mov    %rdi,%rsi
  401933:	8b 3d eb 3b 20 00    	mov    0x203beb(%rip),%edi        # 605524 <cookie>
  401939:	e8 36 ff ff ff       	callq  401874 <hexmatch>
  40193e:	85 c0                	test   %eax,%eax
  401940:	74 23                	je     401965 <touch3+0x43>
  401942:	48 89 da             	mov    %rbx,%rdx
  401945:	be e8 37 40 00       	mov    $0x4037e8,%esi
  40194a:	bf 01 00 00 00       	mov    $0x1,%edi
  40194f:	b8 00 00 00 00       	mov    $0x0,%eax
  401954:	e8 c7 f4 ff ff       	callq  400e20 <__printf_chk@plt>
  401959:	bf 03 00 00 00       	mov    $0x3,%edi
  40195e:	e8 73 04 00 00       	callq  401dd6 <validate>
  401963:	eb 21                	jmp    401986 <touch3+0x64>
  401965:	48 89 da             	mov    %rbx,%rdx
  401968:	be 10 38 40 00       	mov    $0x403810,%esi
  40196d:	bf 01 00 00 00       	mov    $0x1,%edi
  401972:	b8 00 00 00 00       	mov    $0x0,%eax
  401977:	e8 a4 f4 ff ff       	callq  400e20 <__printf_chk@plt>
  40197c:	bf 03 00 00 00       	mov    $0x3,%edi
  401981:	e8 12 05 00 00       	callq  401e98 <fail>
  401986:	bf 00 00 00 00       	mov    $0x0,%edi
  40198b:	e8 e0 f4 ff ff       	callq  400e70 <exit@plt>

0000000000401990 <test>:
  401990:	48 83 ec 08          	sub    $0x8,%rsp
  401994:	b8 00 00 00 00       	mov    $0x0,%eax
  401999:	e8 34 fe ff ff       	callq  4017d2 <getbuf>
  40199e:	89 c2                	mov    %eax,%edx
  4019a0:	be 38 38 40 00       	mov    $0x403838,%esi
  4019a5:	bf 01 00 00 00       	mov    $0x1,%edi
  4019aa:	b8 00 00 00 00       	mov    $0x0,%eax
  4019af:	e8 6c f4 ff ff       	callq  400e20 <__printf_chk@plt>
  4019b4:	48 83 c4 08          	add    $0x8,%rsp
  4019b8:	c3                   	retq   

00000000004019b9 <start_farm>:
  4019b9:	b8 01 00 00 00       	mov    $0x1,%eax
  4019be:	c3                   	retq   

00000000004019bf <addval_202>:
  4019bf:	8d 87 4c 48 89 c7    	lea    -0x3876b7b4(%rdi),%eax
  4019c5:	c3                   	retq   

00000000004019c6 <setval_177>:
  4019c6:	c7 07 d8 90 90 90    	movl   $0x909090d8,(%rdi)
  4019cc:	c3                   	retq   

00000000004019cd <setval_321>:
  4019cd:	c7 07 68 89 c7 90    	movl   $0x90c78968,(%rdi)
  4019d3:	c3                   	retq   

00000000004019d4 <getval_198>:
  4019d4:	b8 5b 14 78 90       	mov    $0x9078145b,%eax
  4019d9:	c3                   	retq   

00000000004019da <setval_336>:
  4019da:	c7 07 a1 58 c3 0a    	movl   $0xac358a1,(%rdi)
  4019e0:	c3                   	retq   

00000000004019e1 <setval_266>:
  4019e1:	c7 07 48 89 c7 91    	movl   $0x91c78948,(%rdi)
  4019e7:	c3                   	retq   

00000000004019e8 <getval_275>:
  4019e8:	b8 75 48 89 c7       	mov    $0xc7894875,%eax
  4019ed:	c3                   	retq   

00000000004019ee <getval_209>:
  4019ee:	b8 58 90 90 c3       	mov    $0xc3909058,%eax
  4019f3:	c3                   	retq   

00000000004019f4 <mid_farm>:
  4019f4:	b8 01 00 00 00       	mov    $0x1,%eax
  4019f9:	c3                   	retq   

00000000004019fa <add_xy>:
  4019fa:	48 8d 04 37          	lea    (%rdi,%rsi,1),%rax
  4019fe:	c3                   	retq   

00000000004019ff <addval_496>:
  4019ff:	8d 87 48 89 e0 90    	lea    -0x6f1f76b8(%rdi),%eax
  401a05:	c3                   	retq   

0000000000401a06 <addval_358>:
  401a06:	8d 87 89 d6 00 d2    	lea    -0x2dff2977(%rdi),%eax
  401a0c:	c3                   	retq   

0000000000401a0d <setval_425>:
  401a0d:	c7 07 8b c1 90 c3    	movl   $0xc390c18b,(%rdi)
  401a13:	c3                   	retq   

0000000000401a14 <getval_271>:
  401a14:	b8 99 ca 90 c3       	mov    $0xc390ca99,%eax
  401a19:	c3                   	retq   

0000000000401a1a <setval_189>:
  401a1a:	c7 07 89 ca 20 d2    	movl   $0xd220ca89,(%rdi)
  401a20:	c3                   	retq   

0000000000401a21 <setval_298>:
  401a21:	c7 07 89 d6 a4 c0    	movl   $0xc0a4d689,(%rdi)
  401a27:	c3                   	retq   

0000000000401a28 <setval_315>:
  401a28:	c7 07 89 c1 30 c9    	movl   $0xc930c189,(%rdi)
  401a2e:	c3                   	retq   

0000000000401a2f <setval_378>:
  401a2f:	c7 07 81 c1 08 c0    	movl   $0xc008c181,(%rdi)
  401a35:	c3                   	retq   

0000000000401a36 <addval_359>:
  401a36:	8d 87 8d ca 08 d2    	lea    -0x2df73573(%rdi),%eax
  401a3c:	c3                   	retq   

0000000000401a3d <addval_488>:
  401a3d:	8d 87 89 c1 38 c9    	lea    -0x36c73e77(%rdi),%eax
  401a43:	c3                   	retq   

0000000000401a44 <setval_142>:
  401a44:	c7 07 8b c1 38 c0    	movl   $0xc038c18b,(%rdi)
  401a4a:	c3                   	retq   

0000000000401a4b <setval_107>:
  401a4b:	c7 07 09 ca 90 c3    	movl   $0xc390ca09,(%rdi)
  401a51:	c3                   	retq   

0000000000401a52 <getval_461>:
  401a52:	b8 8d d6 38 c0       	mov    $0xc038d68d,%eax
  401a57:	c3                   	retq   

0000000000401a58 <addval_392>:
  401a58:	8d 87 89 d6 08 c0    	lea    -0x3ff72977(%rdi),%eax
  401a5e:	c3                   	retq   

0000000000401a5f <getval_241>:
  401a5f:	b8 ff 8b c1 c3       	mov    $0xc3c18bff,%eax
  401a64:	c3                   	retq   

0000000000401a65 <setval_253>:
  401a65:	c7 07 a9 d6 38 c0    	movl   $0xc038d6a9,(%rdi)
  401a6b:	c3                   	retq   

0000000000401a6c <getval_348>:
  401a6c:	b8 89 d6 84 d2       	mov    $0xd284d689,%eax
  401a71:	c3                   	retq   

0000000000401a72 <setval_230>:
  401a72:	c7 07 89 ca 28 d2    	movl   $0xd228ca89,(%rdi)
  401a78:	c3                   	retq   

0000000000401a79 <getval_401>:
  401a79:	b8 58 89 e0 90       	mov    $0x90e08958,%eax
  401a7e:	c3                   	retq   

0000000000401a7f <getval_438>:
  401a7f:	b8 89 ca 78 db       	mov    $0xdb78ca89,%eax
  401a84:	c3                   	retq   

0000000000401a85 <setval_251>:
  401a85:	c7 07 48 89 e0 c7    	movl   $0xc7e08948,(%rdi)
  401a8b:	c3                   	retq   

0000000000401a8c <addval_111>:
  401a8c:	8d 87 c8 89 e0 90    	lea    -0x6f1f7638(%rdi),%eax
  401a92:	c3                   	retq   

0000000000401a93 <addval_294>:
  401a93:	8d 87 68 89 e0 90    	lea    -0x6f1f7698(%rdi),%eax
  401a99:	c3                   	retq   

0000000000401a9a <setval_465>:
  401a9a:	c7 07 8d d6 08 c0    	movl   $0xc008d68d,(%rdi)
  401aa0:	c3                   	retq   

0000000000401aa1 <addval_180>:
  401aa1:	8d 87 48 89 e0 91    	lea    -0x6e1f76b8(%rdi),%eax
  401aa7:	c3                   	retq   

0000000000401aa8 <getval_386>:
  401aa8:	b8 89 ca 90 c3       	mov    $0xc390ca89,%eax
  401aad:	c3                   	retq   

0000000000401aae <setval_480>:
  401aae:	c7 07 f4 48 89 e0    	movl   $0xe08948f4,(%rdi)
  401ab4:	c3                   	retq   

0000000000401ab5 <setval_426>:
  401ab5:	c7 07 81 ca 20 d2    	movl   $0xd220ca81,(%rdi)
  401abb:	c3                   	retq   

0000000000401abc <addval_134>:
  401abc:	8d 87 88 c1 38 c9    	lea    -0x36c73e78(%rdi),%eax
  401ac2:	c3                   	retq   

0000000000401ac3 <setval_295>:
  401ac3:	c7 07 89 c1 90 c3    	movl   $0xc390c189,(%rdi)
  401ac9:	c3                   	retq   

0000000000401aca <setval_223>:
  401aca:	c7 07 89 d6 18 d2    	movl   $0xd218d689,(%rdi)
  401ad0:	c3                   	retq   

0000000000401ad1 <addval_167>:
  401ad1:	8d 87 48 89 e0 c7    	lea    -0x381f76b8(%rdi),%eax
  401ad7:	c3                   	retq   

0000000000401ad8 <end_farm>:
  401ad8:	b8 01 00 00 00       	mov    $0x1,%eax
  401add:	c3                   	retq   
  401ade:	66 90                	xchg   %ax,%ax

0000000000401ae0 <save_char>:
  401ae0:	8b 05 5e 46 20 00    	mov    0x20465e(%rip),%eax        # 606144 <gets_cnt>
  401ae6:	3d ff 03 00 00       	cmp    $0x3ff,%eax
  401aeb:	7f 49                	jg     401b36 <save_char+0x56>
  401aed:	8d 14 40             	lea    (%rax,%rax,2),%edx
  401af0:	89 f9                	mov    %edi,%ecx
  401af2:	c0 e9 04             	shr    $0x4,%cl
  401af5:	83 e1 0f             	and    $0xf,%ecx
  401af8:	0f b6 b1 60 3b 40 00 	movzbl 0x403b60(%rcx),%esi
  401aff:	48 63 ca             	movslq %edx,%rcx
  401b02:	40 88 b1 40 55 60 00 	mov    %sil,0x605540(%rcx)
  401b09:	8d 4a 01             	lea    0x1(%rdx),%ecx
  401b0c:	83 e7 0f             	and    $0xf,%edi
  401b0f:	0f b6 b7 60 3b 40 00 	movzbl 0x403b60(%rdi),%esi
  401b16:	48 63 c9             	movslq %ecx,%rcx
  401b19:	40 88 b1 40 55 60 00 	mov    %sil,0x605540(%rcx)
  401b20:	83 c2 02             	add    $0x2,%edx
  401b23:	48 63 d2             	movslq %edx,%rdx
  401b26:	c6 82 40 55 60 00 20 	movb   $0x20,0x605540(%rdx)
  401b2d:	83 c0 01             	add    $0x1,%eax
  401b30:	89 05 0e 46 20 00    	mov    %eax,0x20460e(%rip)        # 606144 <gets_cnt>
  401b36:	f3 c3                	repz retq 

0000000000401b38 <save_term>:
  401b38:	8b 05 06 46 20 00    	mov    0x204606(%rip),%eax        # 606144 <gets_cnt>
  401b3e:	8d 04 40             	lea    (%rax,%rax,2),%eax
  401b41:	48 98                	cltq   
  401b43:	c6 80 40 55 60 00 00 	movb   $0x0,0x605540(%rax)
  401b4a:	c3                   	retq   

0000000000401b4b <check_fail>:
  401b4b:	48 83 ec 08          	sub    $0x8,%rsp
  401b4f:	0f be 15 f2 45 20 00 	movsbl 0x2045f2(%rip),%edx        # 606148 <target_prefix>
  401b56:	41 b8 40 55 60 00    	mov    $0x605540,%r8d
  401b5c:	8b 0d b6 39 20 00    	mov    0x2039b6(%rip),%ecx        # 605518 <check_level>
  401b62:	be 5b 38 40 00       	mov    $0x40385b,%esi
  401b67:	bf 01 00 00 00       	mov    $0x1,%edi
  401b6c:	b8 00 00 00 00       	mov    $0x0,%eax
  401b71:	e8 aa f2 ff ff       	callq  400e20 <__printf_chk@plt>
  401b76:	bf 01 00 00 00       	mov    $0x1,%edi
  401b7b:	e8 f0 f2 ff ff       	callq  400e70 <exit@plt>

0000000000401b80 <Gets>:
  401b80:	41 54                	push   %r12
  401b82:	55                   	push   %rbp
  401b83:	53                   	push   %rbx
  401b84:	49 89 fc             	mov    %rdi,%r12
  401b87:	c7 05 b3 45 20 00 00 	movl   $0x0,0x2045b3(%rip)        # 606144 <gets_cnt>
  401b8e:	00 00 00 
  401b91:	48 89 fb             	mov    %rdi,%rbx
  401b94:	eb 11                	jmp    401ba7 <Gets+0x27>
  401b96:	48 8d 6b 01          	lea    0x1(%rbx),%rbp
  401b9a:	88 03                	mov    %al,(%rbx)
  401b9c:	0f b6 f8             	movzbl %al,%edi
  401b9f:	e8 3c ff ff ff       	callq  401ae0 <save_char>
  401ba4:	48 89 eb             	mov    %rbp,%rbx
  401ba7:	48 8b 3d 62 39 20 00 	mov    0x203962(%rip),%rdi        # 605510 <infile>
  401bae:	e8 3d f2 ff ff       	callq  400df0 <_IO_getc@plt>
  401bb3:	83 f8 ff             	cmp    $0xffffffff,%eax
  401bb6:	74 05                	je     401bbd <Gets+0x3d>
  401bb8:	83 f8 0a             	cmp    $0xa,%eax
  401bbb:	75 d9                	jne    401b96 <Gets+0x16>
  401bbd:	c6 03 00             	movb   $0x0,(%rbx)
  401bc0:	b8 00 00 00 00       	mov    $0x0,%eax
  401bc5:	e8 6e ff ff ff       	callq  401b38 <save_term>
  401bca:	4c 89 e0             	mov    %r12,%rax
  401bcd:	5b                   	pop    %rbx
  401bce:	5d                   	pop    %rbp
  401bcf:	41 5c                	pop    %r12
  401bd1:	c3                   	retq   

0000000000401bd2 <notify_server>:
  401bd2:	53                   	push   %rbx
  401bd3:	48 81 ec 30 40 00 00 	sub    $0x4030,%rsp
  401bda:	64 48 8b 04 25 28 00 	mov    %fs:0x28,%rax
  401be1:	00 00 
  401be3:	48 89 84 24 28 40 00 	mov    %rax,0x4028(%rsp)
  401bea:	00 
  401beb:	31 c0                	xor    %eax,%eax
  401bed:	83 3d 34 39 20 00 00 	cmpl   $0x0,0x203934(%rip)        # 605528 <is_checker>
  401bf4:	0f 85 bb 01 00 00    	jne    401db5 <notify_server+0x1e3>
  401bfa:	89 fb                	mov    %edi,%ebx
  401bfc:	8b 05 42 45 20 00    	mov    0x204542(%rip),%eax        # 606144 <gets_cnt>
  401c02:	83 c0 64             	add    $0x64,%eax
  401c05:	3d 00 20 00 00       	cmp    $0x2000,%eax
  401c0a:	7e 1e                	jle    401c2a <notify_server+0x58>
  401c0c:	be 90 39 40 00       	mov    $0x403990,%esi
  401c11:	bf 01 00 00 00       	mov    $0x1,%edi
  401c16:	b8 00 00 00 00       	mov    $0x0,%eax
  401c1b:	e8 00 f2 ff ff       	callq  400e20 <__printf_chk@plt>
  401c20:	bf 01 00 00 00       	mov    $0x1,%edi
  401c25:	e8 46 f2 ff ff       	callq  400e70 <exit@plt>
  401c2a:	0f be 05 17 45 20 00 	movsbl 0x204517(%rip),%eax        # 606148 <target_prefix>
  401c31:	83 3d 70 38 20 00 00 	cmpl   $0x0,0x203870(%rip)        # 6054a8 <notify>
  401c38:	74 08                	je     401c42 <notify_server+0x70>
  401c3a:	8b 15 e0 38 20 00    	mov    0x2038e0(%rip),%edx        # 605520 <authkey>
  401c40:	eb 05                	jmp    401c47 <notify_server+0x75>
  401c42:	ba ff ff ff ff       	mov    $0xffffffff,%edx
  401c47:	85 db                	test   %ebx,%ebx
  401c49:	74 08                	je     401c53 <notify_server+0x81>
  401c4b:	41 b9 71 38 40 00    	mov    $0x403871,%r9d
  401c51:	eb 06                	jmp    401c59 <notify_server+0x87>
  401c53:	41 b9 76 38 40 00    	mov    $0x403876,%r9d
  401c59:	48 c7 44 24 18 40 55 	movq   $0x605540,0x18(%rsp)
  401c60:	60 00 
  401c62:	89 74 24 10          	mov    %esi,0x10(%rsp)
  401c66:	89 44 24 08          	mov    %eax,0x8(%rsp)
  401c6a:	89 14 24             	mov    %edx,(%rsp)
  401c6d:	44 8b 05 f4 34 20 00 	mov    0x2034f4(%rip),%r8d        # 605168 <target_id>
  401c74:	b9 7b 38 40 00       	mov    $0x40387b,%ecx
  401c79:	ba 00 20 00 00       	mov    $0x2000,%edx
  401c7e:	be 01 00 00 00       	mov    $0x1,%esi
  401c83:	48 8d 7c 24 20       	lea    0x20(%rsp),%rdi
  401c88:	b8 00 00 00 00       	mov    $0x0,%eax
  401c8d:	e8 0e f2 ff ff       	callq  400ea0 <__sprintf_chk@plt>
  401c92:	83 3d 0f 38 20 00 00 	cmpl   $0x0,0x20380f(%rip)        # 6054a8 <notify>
  401c99:	0f 84 86 00 00 00    	je     401d25 <notify_server+0x153>
  401c9f:	85 db                	test   %ebx,%ebx
  401ca1:	74 70                	je     401d13 <notify_server+0x141>
  401ca3:	4c 8d 8c 24 20 20 00 	lea    0x2020(%rsp),%r9
  401caa:	00 
  401cab:	41 b8 00 00 00 00    	mov    $0x0,%r8d
  401cb1:	48 8d 4c 24 20       	lea    0x20(%rsp),%rcx
  401cb6:	48 8b 15 b3 34 20 00 	mov    0x2034b3(%rip),%rdx        # 605170 <lab>
  401cbd:	48 8b 35 b4 34 20 00 	mov    0x2034b4(%rip),%rsi        # 605178 <course>
  401cc4:	48 8b 3d 95 34 20 00 	mov    0x203495(%rip),%rdi        # 605160 <user_id>
  401ccb:	e8 be 10 00 00       	callq  402d8e <driver_post>
  401cd0:	85 c0                	test   %eax,%eax
  401cd2:	79 26                	jns    401cfa <notify_server+0x128>
  401cd4:	48 8d 94 24 20 20 00 	lea    0x2020(%rsp),%rdx
  401cdb:	00 
  401cdc:	be 97 38 40 00       	mov    $0x403897,%esi
  401ce1:	bf 01 00 00 00       	mov    $0x1,%edi
  401ce6:	b8 00 00 00 00       	mov    $0x0,%eax
  401ceb:	e8 30 f1 ff ff       	callq  400e20 <__printf_chk@plt>
  401cf0:	bf 01 00 00 00       	mov    $0x1,%edi
  401cf5:	e8 76 f1 ff ff       	callq  400e70 <exit@plt>
  401cfa:	bf c0 39 40 00       	mov    $0x4039c0,%edi
  401cff:	e8 dc ef ff ff       	callq  400ce0 <puts@plt>
  401d04:	bf a3 38 40 00       	mov    $0x4038a3,%edi
  401d09:	e8 d2 ef ff ff       	callq  400ce0 <puts@plt>
  401d0e:	e9 a2 00 00 00       	jmpq   401db5 <notify_server+0x1e3>
  401d13:	bf ad 38 40 00       	mov    $0x4038ad,%edi
  401d18:	e8 c3 ef ff ff       	callq  400ce0 <puts@plt>
  401d1d:	0f 1f 00             	nopl   (%rax)
  401d20:	e9 90 00 00 00       	jmpq   401db5 <notify_server+0x1e3>
  401d25:	85 db                	test   %ebx,%ebx
  401d27:	74 09                	je     401d32 <notify_server+0x160>
  401d29:	ba 71 38 40 00       	mov    $0x403871,%edx
  401d2e:	66 90                	xchg   %ax,%ax
  401d30:	eb 05                	jmp    401d37 <notify_server+0x165>
  401d32:	ba 76 38 40 00       	mov    $0x403876,%edx
  401d37:	be f8 39 40 00       	mov    $0x4039f8,%esi
  401d3c:	bf 01 00 00 00       	mov    $0x1,%edi
  401d41:	b8 00 00 00 00       	mov    $0x0,%eax
  401d46:	e8 d5 f0 ff ff       	callq  400e20 <__printf_chk@plt>
  401d4b:	48 8b 15 0e 34 20 00 	mov    0x20340e(%rip),%rdx        # 605160 <user_id>
  401d52:	be b4 38 40 00       	mov    $0x4038b4,%esi
  401d57:	bf 01 00 00 00       	mov    $0x1,%edi
  401d5c:	b8 00 00 00 00       	mov    $0x0,%eax
  401d61:	e8 ba f0 ff ff       	callq  400e20 <__printf_chk@plt>
  401d66:	48 8b 15 0b 34 20 00 	mov    0x20340b(%rip),%rdx        # 605178 <course>
  401d6d:	be c1 38 40 00       	mov    $0x4038c1,%esi
  401d72:	bf 01 00 00 00       	mov    $0x1,%edi
  401d77:	b8 00 00 00 00       	mov    $0x0,%eax
  401d7c:	e8 9f f0 ff ff       	callq  400e20 <__printf_chk@plt>
  401d81:	48 8b 15 e8 33 20 00 	mov    0x2033e8(%rip),%rdx        # 605170 <lab>
  401d88:	be cd 38 40 00       	mov    $0x4038cd,%esi
  401d8d:	bf 01 00 00 00       	mov    $0x1,%edi
  401d92:	b8 00 00 00 00       	mov    $0x0,%eax
  401d97:	e8 84 f0 ff ff       	callq  400e20 <__printf_chk@plt>
  401d9c:	48 8d 54 24 20       	lea    0x20(%rsp),%rdx
  401da1:	be d6 38 40 00       	mov    $0x4038d6,%esi
  401da6:	bf 01 00 00 00       	mov    $0x1,%edi
  401dab:	b8 00 00 00 00       	mov    $0x0,%eax
  401db0:	e8 6b f0 ff ff       	callq  400e20 <__printf_chk@plt>
  401db5:	48 8b 84 24 28 40 00 	mov    0x4028(%rsp),%rax
  401dbc:	00 
  401dbd:	64 48 33 04 25 28 00 	xor    %fs:0x28,%rax
  401dc4:	00 00 
  401dc6:	74 05                	je     401dcd <notify_server+0x1fb>
  401dc8:	e8 33 ef ff ff       	callq  400d00 <__stack_chk_fail@plt>
  401dcd:	48 81 c4 30 40 00 00 	add    $0x4030,%rsp
  401dd4:	5b                   	pop    %rbx
  401dd5:	c3                   	retq   

0000000000401dd6 <validate>:
  401dd6:	53                   	push   %rbx
  401dd7:	89 fb                	mov    %edi,%ebx
  401dd9:	83 3d 48 37 20 00 00 	cmpl   $0x0,0x203748(%rip)        # 605528 <is_checker>
  401de0:	74 6b                	je     401e4d <validate+0x77>
  401de2:	39 3d 34 37 20 00    	cmp    %edi,0x203734(%rip)        # 60551c <vlevel>
  401de8:	74 14                	je     401dfe <validate+0x28>
  401dea:	bf e2 38 40 00       	mov    $0x4038e2,%edi
  401def:	e8 ec ee ff ff       	callq  400ce0 <puts@plt>
  401df4:	b8 00 00 00 00       	mov    $0x0,%eax
  401df9:	e8 4d fd ff ff       	callq  401b4b <check_fail>
  401dfe:	8b 15 14 37 20 00    	mov    0x203714(%rip),%edx        # 605518 <check_level>
  401e04:	39 fa                	cmp    %edi,%edx
  401e06:	74 20                	je     401e28 <validate+0x52>
  401e08:	89 f9                	mov    %edi,%ecx
  401e0a:	be 20 3a 40 00       	mov    $0x403a20,%esi
  401e0f:	bf 01 00 00 00       	mov    $0x1,%edi
  401e14:	b8 00 00 00 00       	mov    $0x0,%eax
  401e19:	e8 02 f0 ff ff       	callq  400e20 <__printf_chk@plt>
  401e1e:	b8 00 00 00 00       	mov    $0x0,%eax
  401e23:	e8 23 fd ff ff       	callq  401b4b <check_fail>
  401e28:	0f be 15 19 43 20 00 	movsbl 0x204319(%rip),%edx        # 606148 <target_prefix>
  401e2f:	41 b8 40 55 60 00    	mov    $0x605540,%r8d
  401e35:	89 f9                	mov    %edi,%ecx
  401e37:	be 00 39 40 00       	mov    $0x403900,%esi
  401e3c:	bf 01 00 00 00       	mov    $0x1,%edi
  401e41:	b8 00 00 00 00       	mov    $0x0,%eax
  401e46:	e8 d5 ef ff ff       	callq  400e20 <__printf_chk@plt>
  401e4b:	eb 49                	jmp    401e96 <validate+0xc0>
  401e4d:	39 3d c9 36 20 00    	cmp    %edi,0x2036c9(%rip)        # 60551c <vlevel>
  401e53:	74 18                	je     401e6d <validate+0x97>
  401e55:	bf e2 38 40 00       	mov    $0x4038e2,%edi
  401e5a:	e8 81 ee ff ff       	callq  400ce0 <puts@plt>
  401e5f:	89 de                	mov    %ebx,%esi
  401e61:	bf 00 00 00 00       	mov    $0x0,%edi
  401e66:	e8 67 fd ff ff       	callq  401bd2 <notify_server>
  401e6b:	eb 29                	jmp    401e96 <validate+0xc0>
  401e6d:	0f be 0d d4 42 20 00 	movsbl 0x2042d4(%rip),%ecx        # 606148 <target_prefix>
  401e74:	89 fa                	mov    %edi,%edx
  401e76:	be 48 3a 40 00       	mov    $0x403a48,%esi
  401e7b:	bf 01 00 00 00       	mov    $0x1,%edi
  401e80:	b8 00 00 00 00       	mov    $0x0,%eax
  401e85:	e8 96 ef ff ff       	callq  400e20 <__printf_chk@plt>
  401e8a:	89 de                	mov    %ebx,%esi
  401e8c:	bf 01 00 00 00       	mov    $0x1,%edi
  401e91:	e8 3c fd ff ff       	callq  401bd2 <notify_server>
  401e96:	5b                   	pop    %rbx
  401e97:	c3                   	retq   

0000000000401e98 <fail>:
  401e98:	48 83 ec 08          	sub    $0x8,%rsp
  401e9c:	83 3d 85 36 20 00 00 	cmpl   $0x0,0x203685(%rip)        # 605528 <is_checker>
  401ea3:	74 0a                	je     401eaf <fail+0x17>
  401ea5:	b8 00 00 00 00       	mov    $0x0,%eax
  401eaa:	e8 9c fc ff ff       	callq  401b4b <check_fail>
  401eaf:	89 fe                	mov    %edi,%esi
  401eb1:	bf 00 00 00 00       	mov    $0x0,%edi
  401eb6:	e8 17 fd ff ff       	callq  401bd2 <notify_server>
  401ebb:	48 83 c4 08          	add    $0x8,%rsp
  401ebf:	c3                   	retq   

0000000000401ec0 <bushandler>:
  401ec0:	48 83 ec 08          	sub    $0x8,%rsp
  401ec4:	83 3d 5d 36 20 00 00 	cmpl   $0x0,0x20365d(%rip)        # 605528 <is_checker>
  401ecb:	74 14                	je     401ee1 <bushandler+0x21>
  401ecd:	bf 15 39 40 00       	mov    $0x403915,%edi
  401ed2:	e8 09 ee ff ff       	callq  400ce0 <puts@plt>
  401ed7:	b8 00 00 00 00       	mov    $0x0,%eax
  401edc:	e8 6a fc ff ff       	callq  401b4b <check_fail>
  401ee1:	bf 80 3a 40 00       	mov    $0x403a80,%edi
  401ee6:	e8 f5 ed ff ff       	callq  400ce0 <puts@plt>
  401eeb:	bf 1f 39 40 00       	mov    $0x40391f,%edi
  401ef0:	e8 eb ed ff ff       	callq  400ce0 <puts@plt>
  401ef5:	be 00 00 00 00       	mov    $0x0,%esi
  401efa:	bf 00 00 00 00       	mov    $0x0,%edi
  401eff:	e8 ce fc ff ff       	callq  401bd2 <notify_server>
  401f04:	bf 01 00 00 00       	mov    $0x1,%edi
  401f09:	e8 62 ef ff ff       	callq  400e70 <exit@plt>

0000000000401f0e <seghandler>:
  401f0e:	48 83 ec 08          	sub    $0x8,%rsp
  401f12:	83 3d 0f 36 20 00 00 	cmpl   $0x0,0x20360f(%rip)        # 605528 <is_checker>
  401f19:	74 14                	je     401f2f <seghandler+0x21>
  401f1b:	bf 35 39 40 00       	mov    $0x403935,%edi
  401f20:	e8 bb ed ff ff       	callq  400ce0 <puts@plt>
  401f25:	b8 00 00 00 00       	mov    $0x0,%eax
  401f2a:	e8 1c fc ff ff       	callq  401b4b <check_fail>
  401f2f:	bf a0 3a 40 00       	mov    $0x403aa0,%edi
  401f34:	e8 a7 ed ff ff       	callq  400ce0 <puts@plt>
  401f39:	bf 1f 39 40 00       	mov    $0x40391f,%edi
  401f3e:	e8 9d ed ff ff       	callq  400ce0 <puts@plt>
  401f43:	be 00 00 00 00       	mov    $0x0,%esi
  401f48:	bf 00 00 00 00       	mov    $0x0,%edi
  401f4d:	e8 80 fc ff ff       	callq  401bd2 <notify_server>
  401f52:	bf 01 00 00 00       	mov    $0x1,%edi
  401f57:	e8 14 ef ff ff       	callq  400e70 <exit@plt>

0000000000401f5c <illegalhandler>:
  401f5c:	48 83 ec 08          	sub    $0x8,%rsp
  401f60:	83 3d c1 35 20 00 00 	cmpl   $0x0,0x2035c1(%rip)        # 605528 <is_checker>
  401f67:	74 14                	je     401f7d <illegalhandler+0x21>
  401f69:	bf 48 39 40 00       	mov    $0x403948,%edi
  401f6e:	e8 6d ed ff ff       	callq  400ce0 <puts@plt>
  401f73:	b8 00 00 00 00       	mov    $0x0,%eax
  401f78:	e8 ce fb ff ff       	callq  401b4b <check_fail>
  401f7d:	bf c8 3a 40 00       	mov    $0x403ac8,%edi
  401f82:	e8 59 ed ff ff       	callq  400ce0 <puts@plt>
  401f87:	bf 1f 39 40 00       	mov    $0x40391f,%edi
  401f8c:	e8 4f ed ff ff       	callq  400ce0 <puts@plt>
  401f91:	be 00 00 00 00       	mov    $0x0,%esi
  401f96:	bf 00 00 00 00       	mov    $0x0,%edi
  401f9b:	e8 32 fc ff ff       	callq  401bd2 <notify_server>
  401fa0:	bf 01 00 00 00       	mov    $0x1,%edi
  401fa5:	e8 c6 ee ff ff       	callq  400e70 <exit@plt>

0000000000401faa <sigalrmhandler>:
  401faa:	48 83 ec 08          	sub    $0x8,%rsp
  401fae:	83 3d 73 35 20 00 00 	cmpl   $0x0,0x203573(%rip)        # 605528 <is_checker>
  401fb5:	74 14                	je     401fcb <sigalrmhandler+0x21>
  401fb7:	bf 5c 39 40 00       	mov    $0x40395c,%edi
  401fbc:	e8 1f ed ff ff       	callq  400ce0 <puts@plt>
  401fc1:	b8 00 00 00 00       	mov    $0x0,%eax
  401fc6:	e8 80 fb ff ff       	callq  401b4b <check_fail>
  401fcb:	ba 05 00 00 00       	mov    $0x5,%edx
  401fd0:	be f8 3a 40 00       	mov    $0x403af8,%esi
  401fd5:	bf 01 00 00 00       	mov    $0x1,%edi
  401fda:	b8 00 00 00 00       	mov    $0x0,%eax
  401fdf:	e8 3c ee ff ff       	callq  400e20 <__printf_chk@plt>
  401fe4:	be 00 00 00 00       	mov    $0x0,%esi
  401fe9:	bf 00 00 00 00       	mov    $0x0,%edi
  401fee:	e8 df fb ff ff       	callq  401bd2 <notify_server>
  401ff3:	bf 01 00 00 00       	mov    $0x1,%edi
  401ff8:	e8 73 ee ff ff       	callq  400e70 <exit@plt>

0000000000401ffd <launch>:
  401ffd:	55                   	push   %rbp
  401ffe:	48 89 e5             	mov    %rsp,%rbp
  402001:	48 83 ec 10          	sub    $0x10,%rsp
  402005:	48 89 fa             	mov    %rdi,%rdx
  402008:	64 48 8b 04 25 28 00 	mov    %fs:0x28,%rax
  40200f:	00 00 
  402011:	48 89 45 f8          	mov    %rax,-0x8(%rbp)
  402015:	31 c0                	xor    %eax,%eax
  402017:	48 8d 47 1e          	lea    0x1e(%rdi),%rax
  40201b:	48 83 e0 f0          	and    $0xfffffffffffffff0,%rax
  40201f:	48 29 c4             	sub    %rax,%rsp
  402022:	48 8d 7c 24 0f       	lea    0xf(%rsp),%rdi
  402027:	48 83 e7 f0          	and    $0xfffffffffffffff0,%rdi
  40202b:	be f4 00 00 00       	mov    $0xf4,%esi
  402030:	e8 eb ec ff ff       	callq  400d20 <memset@plt>
  402035:	48 8b 05 84 34 20 00 	mov    0x203484(%rip),%rax        # 6054c0 <stdin@@GLIBC_2.2.5>
  40203c:	48 39 05 cd 34 20 00 	cmp    %rax,0x2034cd(%rip)        # 605510 <infile>
  402043:	75 14                	jne    402059 <launch+0x5c>
  402045:	be 64 39 40 00       	mov    $0x403964,%esi
  40204a:	bf 01 00 00 00       	mov    $0x1,%edi
  40204f:	b8 00 00 00 00       	mov    $0x0,%eax
  402054:	e8 c7 ed ff ff       	callq  400e20 <__printf_chk@plt>
  402059:	c7 05 b9 34 20 00 00 	movl   $0x0,0x2034b9(%rip)        # 60551c <vlevel>
  402060:	00 00 00 
  402063:	b8 00 00 00 00       	mov    $0x0,%eax
  402068:	e8 23 f9 ff ff       	callq  401990 <test>
  40206d:	83 3d b4 34 20 00 00 	cmpl   $0x0,0x2034b4(%rip)        # 605528 <is_checker>
  402074:	74 14                	je     40208a <launch+0x8d>
  402076:	bf 71 39 40 00       	mov    $0x403971,%edi
  40207b:	e8 60 ec ff ff       	callq  400ce0 <puts@plt>
  402080:	b8 00 00 00 00       	mov    $0x0,%eax
  402085:	e8 c1 fa ff ff       	callq  401b4b <check_fail>
  40208a:	bf 7c 39 40 00       	mov    $0x40397c,%edi
  40208f:	e8 4c ec ff ff       	callq  400ce0 <puts@plt>
  402094:	48 8b 45 f8          	mov    -0x8(%rbp),%rax
  402098:	64 48 33 04 25 28 00 	xor    %fs:0x28,%rax
  40209f:	00 00 
  4020a1:	74 05                	je     4020a8 <launch+0xab>
  4020a3:	e8 58 ec ff ff       	callq  400d00 <__stack_chk_fail@plt>
  4020a8:	c9                   	leaveq 
  4020a9:	c3                   	retq   

00000000004020aa <stable_launch>:
  4020aa:	53                   	push   %rbx
  4020ab:	48 89 3d 56 34 20 00 	mov    %rdi,0x203456(%rip)        # 605508 <global_offset>
  4020b2:	41 b9 00 00 00 00    	mov    $0x0,%r9d
  4020b8:	41 b8 00 00 00 00    	mov    $0x0,%r8d
  4020be:	b9 32 01 00 00       	mov    $0x132,%ecx
  4020c3:	ba 07 00 00 00       	mov    $0x7,%edx
  4020c8:	be 00 00 10 00       	mov    $0x100000,%esi
  4020cd:	bf 00 60 58 55       	mov    $0x55586000,%edi
  4020d2:	e8 39 ec ff ff       	callq  400d10 <mmap@plt>
  4020d7:	48 89 c3             	mov    %rax,%rbx
  4020da:	48 3d 00 60 58 55    	cmp    $0x55586000,%rax
  4020e0:	74 37                	je     402119 <stable_launch+0x6f>
  4020e2:	be 00 00 10 00       	mov    $0x100000,%esi
  4020e7:	48 89 c7             	mov    %rax,%rdi
  4020ea:	e8 21 ed ff ff       	callq  400e10 <munmap@plt>
  4020ef:	b9 00 60 58 55       	mov    $0x55586000,%ecx
  4020f4:	ba 30 3b 40 00       	mov    $0x403b30,%edx
  4020f9:	be 01 00 00 00       	mov    $0x1,%esi
  4020fe:	48 8b 3d e3 33 20 00 	mov    0x2033e3(%rip),%rdi        # 6054e8 <stderr@@GLIBC_2.2.5>
  402105:	b8 00 00 00 00       	mov    $0x0,%eax
  40210a:	e8 81 ed ff ff       	callq  400e90 <__fprintf_chk@plt>
  40210f:	bf 01 00 00 00       	mov    $0x1,%edi
  402114:	e8 57 ed ff ff       	callq  400e70 <exit@plt>
  402119:	48 8d 90 f8 ff 0f 00 	lea    0xffff8(%rax),%rdx
  402120:	48 89 15 29 40 20 00 	mov    %rdx,0x204029(%rip)        # 606150 <stack_top>
  402127:	48 89 e0             	mov    %rsp,%rax
  40212a:	48 89 d4             	mov    %rdx,%rsp
  40212d:	48 89 c2             	mov    %rax,%rdx
  402130:	48 89 15 c9 33 20 00 	mov    %rdx,0x2033c9(%rip)        # 605500 <global_save_stack>
  402137:	48 8b 3d ca 33 20 00 	mov    0x2033ca(%rip),%rdi        # 605508 <global_offset>
  40213e:	e8 ba fe ff ff       	callq  401ffd <launch>
  402143:	48 8b 05 b6 33 20 00 	mov    0x2033b6(%rip),%rax        # 605500 <global_save_stack>
  40214a:	48 89 c4             	mov    %rax,%rsp
  40214d:	be 00 00 10 00       	mov    $0x100000,%esi
  402152:	48 89 df             	mov    %rbx,%rdi
  402155:	e8 b6 ec ff ff       	callq  400e10 <munmap@plt>
  40215a:	5b                   	pop    %rbx
  40215b:	c3                   	retq   
  40215c:	0f 1f 40 00          	nopl   0x0(%rax)

0000000000402160 <rio_readinitb>:
  402160:	89 37                	mov    %esi,(%rdi)
  402162:	c7 47 04 00 00 00 00 	movl   $0x0,0x4(%rdi)
  402169:	48 8d 47 10          	lea    0x10(%rdi),%rax
  40216d:	48 89 47 08          	mov    %rax,0x8(%rdi)
  402171:	c3                   	retq   

0000000000402172 <sigalrm_handler>:
  402172:	48 83 ec 08          	sub    $0x8,%rsp
  402176:	b9 00 00 00 00       	mov    $0x0,%ecx
  40217b:	ba 70 3b 40 00       	mov    $0x403b70,%edx
  402180:	be 01 00 00 00       	mov    $0x1,%esi
  402185:	48 8b 3d 5c 33 20 00 	mov    0x20335c(%rip),%rdi        # 6054e8 <stderr@@GLIBC_2.2.5>
  40218c:	b8 00 00 00 00       	mov    $0x0,%eax
  402191:	e8 fa ec ff ff       	callq  400e90 <__fprintf_chk@plt>
  402196:	bf 01 00 00 00       	mov    $0x1,%edi
  40219b:	e8 d0 ec ff ff       	callq  400e70 <exit@plt>

00000000004021a0 <rio_writen>:
  4021a0:	41 55                	push   %r13
  4021a2:	41 54                	push   %r12
  4021a4:	55                   	push   %rbp
  4021a5:	53                   	push   %rbx
  4021a6:	48 83 ec 08          	sub    $0x8,%rsp
  4021aa:	41 89 fc             	mov    %edi,%r12d
  4021ad:	48 89 f5             	mov    %rsi,%rbp
  4021b0:	49 89 d5             	mov    %rdx,%r13
  4021b3:	48 89 d3             	mov    %rdx,%rbx
  4021b6:	eb 28                	jmp    4021e0 <rio_writen+0x40>
  4021b8:	48 89 da             	mov    %rbx,%rdx
  4021bb:	48 89 ee             	mov    %rbp,%rsi
  4021be:	44 89 e7             	mov    %r12d,%edi
  4021c1:	e8 2a eb ff ff       	callq  400cf0 <write@plt>
  4021c6:	48 85 c0             	test   %rax,%rax
  4021c9:	7f 0f                	jg     4021da <rio_writen+0x3a>
  4021cb:	e8 d0 ea ff ff       	callq  400ca0 <__errno_location@plt>
  4021d0:	83 38 04             	cmpl   $0x4,(%rax)
  4021d3:	75 15                	jne    4021ea <rio_writen+0x4a>
  4021d5:	b8 00 00 00 00       	mov    $0x0,%eax
  4021da:	48 29 c3             	sub    %rax,%rbx
  4021dd:	48 01 c5             	add    %rax,%rbp
  4021e0:	48 85 db             	test   %rbx,%rbx
  4021e3:	75 d3                	jne    4021b8 <rio_writen+0x18>
  4021e5:	4c 89 e8             	mov    %r13,%rax
  4021e8:	eb 07                	jmp    4021f1 <rio_writen+0x51>
  4021ea:	48 c7 c0 ff ff ff ff 	mov    $0xffffffffffffffff,%rax
  4021f1:	48 83 c4 08          	add    $0x8,%rsp
  4021f5:	5b                   	pop    %rbx
  4021f6:	5d                   	pop    %rbp
  4021f7:	41 5c                	pop    %r12
  4021f9:	41 5d                	pop    %r13
  4021fb:	c3                   	retq   

00000000004021fc <rio_read>:
  4021fc:	41 56                	push   %r14
  4021fe:	41 55                	push   %r13
  402200:	41 54                	push   %r12
  402202:	55                   	push   %rbp
  402203:	53                   	push   %rbx
  402204:	48 89 fb             	mov    %rdi,%rbx
  402207:	49 89 f6             	mov    %rsi,%r14
  40220a:	49 89 d5             	mov    %rdx,%r13
  40220d:	4c 8d 67 10          	lea    0x10(%rdi),%r12
  402211:	eb 2a                	jmp    40223d <rio_read+0x41>
  402213:	8b 3b                	mov    (%rbx),%edi
  402215:	ba 00 20 00 00       	mov    $0x2000,%edx
  40221a:	4c 89 e6             	mov    %r12,%rsi
  40221d:	e8 2e eb ff ff       	callq  400d50 <read@plt>
  402222:	89 43 04             	mov    %eax,0x4(%rbx)
  402225:	85 c0                	test   %eax,%eax
  402227:	79 0c                	jns    402235 <rio_read+0x39>
  402229:	e8 72 ea ff ff       	callq  400ca0 <__errno_location@plt>
  40222e:	83 38 04             	cmpl   $0x4,(%rax)
  402231:	74 0a                	je     40223d <rio_read+0x41>
  402233:	eb 37                	jmp    40226c <rio_read+0x70>
  402235:	85 c0                	test   %eax,%eax
  402237:	74 3c                	je     402275 <rio_read+0x79>
  402239:	4c 89 63 08          	mov    %r12,0x8(%rbx)
  40223d:	8b 6b 04             	mov    0x4(%rbx),%ebp
  402240:	85 ed                	test   %ebp,%ebp
  402242:	7e cf                	jle    402213 <rio_read+0x17>
  402244:	89 e8                	mov    %ebp,%eax
  402246:	4c 39 e8             	cmp    %r13,%rax
  402249:	72 03                	jb     40224e <rio_read+0x52>
  40224b:	44 89 ed             	mov    %r13d,%ebp
  40224e:	4c 63 e5             	movslq %ebp,%r12
  402251:	48 8b 73 08          	mov    0x8(%rbx),%rsi
  402255:	4c 89 e2             	mov    %r12,%rdx
  402258:	4c 89 f7             	mov    %r14,%rdi
  40225b:	e8 60 eb ff ff       	callq  400dc0 <memcpy@plt>
  402260:	4c 01 63 08          	add    %r12,0x8(%rbx)
  402264:	29 6b 04             	sub    %ebp,0x4(%rbx)
  402267:	4c 89 e0             	mov    %r12,%rax
  40226a:	eb 0e                	jmp    40227a <rio_read+0x7e>
  40226c:	48 c7 c0 ff ff ff ff 	mov    $0xffffffffffffffff,%rax
  402273:	eb 05                	jmp    40227a <rio_read+0x7e>
  402275:	b8 00 00 00 00       	mov    $0x0,%eax
  40227a:	5b                   	pop    %rbx
  40227b:	5d                   	pop    %rbp
  40227c:	41 5c                	pop    %r12
  40227e:	41 5d                	pop    %r13
  402280:	41 5e                	pop    %r14
  402282:	c3                   	retq   

0000000000402283 <rio_readlineb>:
  402283:	41 55                	push   %r13
  402285:	41 54                	push   %r12
  402287:	55                   	push   %rbp
  402288:	53                   	push   %rbx
  402289:	48 83 ec 18          	sub    $0x18,%rsp
  40228d:	49 89 fd             	mov    %rdi,%r13
  402290:	48 89 f5             	mov    %rsi,%rbp
  402293:	49 89 d4             	mov    %rdx,%r12
  402296:	bb 01 00 00 00       	mov    $0x1,%ebx
  40229b:	eb 3e                	jmp    4022db <rio_readlineb+0x58>
  40229d:	ba 01 00 00 00       	mov    $0x1,%edx
  4022a2:	48 8d 74 24 0f       	lea    0xf(%rsp),%rsi
  4022a7:	4c 89 ef             	mov    %r13,%rdi
  4022aa:	e8 4d ff ff ff       	callq  4021fc <rio_read>
  4022af:	83 f8 01             	cmp    $0x1,%eax
  4022b2:	75 12                	jne    4022c6 <rio_readlineb+0x43>
  4022b4:	48 8d 55 01          	lea    0x1(%rbp),%rdx
  4022b8:	0f b6 44 24 0f       	movzbl 0xf(%rsp),%eax
  4022bd:	88 45 00             	mov    %al,0x0(%rbp)
  4022c0:	3c 0a                	cmp    $0xa,%al
  4022c2:	75 10                	jne    4022d4 <rio_readlineb+0x51>
  4022c4:	eb 1c                	jmp    4022e2 <rio_readlineb+0x5f>
  4022c6:	85 c0                	test   %eax,%eax
  4022c8:	75 24                	jne    4022ee <rio_readlineb+0x6b>
  4022ca:	48 83 fb 01          	cmp    $0x1,%rbx
  4022ce:	66 90                	xchg   %ax,%ax
  4022d0:	75 13                	jne    4022e5 <rio_readlineb+0x62>
  4022d2:	eb 23                	jmp    4022f7 <rio_readlineb+0x74>
  4022d4:	48 83 c3 01          	add    $0x1,%rbx
  4022d8:	48 89 d5             	mov    %rdx,%rbp
  4022db:	4c 39 e3             	cmp    %r12,%rbx
  4022de:	72 bd                	jb     40229d <rio_readlineb+0x1a>
  4022e0:	eb 03                	jmp    4022e5 <rio_readlineb+0x62>
  4022e2:	48 89 d5             	mov    %rdx,%rbp
  4022e5:	c6 45 00 00          	movb   $0x0,0x0(%rbp)
  4022e9:	48 89 d8             	mov    %rbx,%rax
  4022ec:	eb 0e                	jmp    4022fc <rio_readlineb+0x79>
  4022ee:	48 c7 c0 ff ff ff ff 	mov    $0xffffffffffffffff,%rax
  4022f5:	eb 05                	jmp    4022fc <rio_readlineb+0x79>
  4022f7:	b8 00 00 00 00       	mov    $0x0,%eax
  4022fc:	48 83 c4 18          	add    $0x18,%rsp
  402300:	5b                   	pop    %rbx
  402301:	5d                   	pop    %rbp
  402302:	41 5c                	pop    %r12
  402304:	41 5d                	pop    %r13
  402306:	c3                   	retq   

0000000000402307 <urlencode>:
  402307:	41 54                	push   %r12
  402309:	55                   	push   %rbp
  40230a:	53                   	push   %rbx
  40230b:	48 83 ec 10          	sub    $0x10,%rsp
  40230f:	48 89 fb             	mov    %rdi,%rbx
  402312:	48 89 f5             	mov    %rsi,%rbp
  402315:	64 48 8b 04 25 28 00 	mov    %fs:0x28,%rax
  40231c:	00 00 
  40231e:	48 89 44 24 08       	mov    %rax,0x8(%rsp)
  402323:	31 c0                	xor    %eax,%eax
  402325:	48 c7 c1 ff ff ff ff 	mov    $0xffffffffffffffff,%rcx
  40232c:	f2 ae                	repnz scas %es:(%rdi),%al
  40232e:	48 f7 d1             	not    %rcx
  402331:	8d 41 ff             	lea    -0x1(%rcx),%eax
  402334:	e9 aa 00 00 00       	jmpq   4023e3 <urlencode+0xdc>
  402339:	44 0f b6 03          	movzbl (%rbx),%r8d
  40233d:	41 80 f8 2a          	cmp    $0x2a,%r8b
  402341:	0f 94 c2             	sete   %dl
  402344:	41 80 f8 2d          	cmp    $0x2d,%r8b
  402348:	0f 94 c0             	sete   %al
  40234b:	08 c2                	or     %al,%dl
  40234d:	75 24                	jne    402373 <urlencode+0x6c>
  40234f:	41 80 f8 2e          	cmp    $0x2e,%r8b
  402353:	74 1e                	je     402373 <urlencode+0x6c>
  402355:	41 80 f8 5f          	cmp    $0x5f,%r8b
  402359:	74 18                	je     402373 <urlencode+0x6c>
  40235b:	41 8d 40 d0          	lea    -0x30(%r8),%eax
  40235f:	3c 09                	cmp    $0x9,%al
  402361:	76 10                	jbe    402373 <urlencode+0x6c>
  402363:	41 8d 40 bf          	lea    -0x41(%r8),%eax
  402367:	3c 19                	cmp    $0x19,%al
  402369:	76 08                	jbe    402373 <urlencode+0x6c>
  40236b:	41 8d 40 9f          	lea    -0x61(%r8),%eax
  40236f:	3c 19                	cmp    $0x19,%al
  402371:	77 0a                	ja     40237d <urlencode+0x76>
  402373:	44 88 45 00          	mov    %r8b,0x0(%rbp)
  402377:	48 8d 6d 01          	lea    0x1(%rbp),%rbp
  40237b:	eb 5f                	jmp    4023dc <urlencode+0xd5>
  40237d:	41 80 f8 20          	cmp    $0x20,%r8b
  402381:	75 0a                	jne    40238d <urlencode+0x86>
  402383:	c6 45 00 2b          	movb   $0x2b,0x0(%rbp)
  402387:	48 8d 6d 01          	lea    0x1(%rbp),%rbp
  40238b:	eb 4f                	jmp    4023dc <urlencode+0xd5>
  40238d:	41 8d 40 e0          	lea    -0x20(%r8),%eax
  402391:	3c 5f                	cmp    $0x5f,%al
  402393:	0f 96 c2             	setbe  %dl
  402396:	41 80 f8 09          	cmp    $0x9,%r8b
  40239a:	0f 94 c0             	sete   %al
  40239d:	08 c2                	or     %al,%dl
  40239f:	74 50                	je     4023f1 <urlencode+0xea>
  4023a1:	45 0f b6 c0          	movzbl %r8b,%r8d
  4023a5:	b9 08 3c 40 00       	mov    $0x403c08,%ecx
  4023aa:	ba 08 00 00 00       	mov    $0x8,%edx
  4023af:	be 01 00 00 00       	mov    $0x1,%esi
  4023b4:	48 89 e7             	mov    %rsp,%rdi
  4023b7:	b8 00 00 00 00       	mov    $0x0,%eax
  4023bc:	e8 df ea ff ff       	callq  400ea0 <__sprintf_chk@plt>
  4023c1:	0f b6 04 24          	movzbl (%rsp),%eax
  4023c5:	88 45 00             	mov    %al,0x0(%rbp)
  4023c8:	0f b6 44 24 01       	movzbl 0x1(%rsp),%eax
  4023cd:	88 45 01             	mov    %al,0x1(%rbp)
  4023d0:	0f b6 44 24 02       	movzbl 0x2(%rsp),%eax
  4023d5:	88 45 02             	mov    %al,0x2(%rbp)
  4023d8:	48 8d 6d 03          	lea    0x3(%rbp),%rbp
  4023dc:	48 83 c3 01          	add    $0x1,%rbx
  4023e0:	44 89 e0             	mov    %r12d,%eax
  4023e3:	44 8d 60 ff          	lea    -0x1(%rax),%r12d
  4023e7:	85 c0                	test   %eax,%eax
  4023e9:	0f 85 4a ff ff ff    	jne    402339 <urlencode+0x32>
  4023ef:	eb 05                	jmp    4023f6 <urlencode+0xef>
  4023f1:	b8 ff ff ff ff       	mov    $0xffffffff,%eax
  4023f6:	48 8b 74 24 08       	mov    0x8(%rsp),%rsi
  4023fb:	64 48 33 34 25 28 00 	xor    %fs:0x28,%rsi
  402402:	00 00 
  402404:	74 05                	je     40240b <urlencode+0x104>
  402406:	e8 f5 e8 ff ff       	callq  400d00 <__stack_chk_fail@plt>
  40240b:	48 83 c4 10          	add    $0x10,%rsp
  40240f:	5b                   	pop    %rbx
  402410:	5d                   	pop    %rbp
  402411:	41 5c                	pop    %r12
  402413:	c3                   	retq   

0000000000402414 <submitr>:
  402414:	41 57                	push   %r15
  402416:	41 56                	push   %r14
  402418:	41 55                	push   %r13
  40241a:	41 54                	push   %r12
  40241c:	55                   	push   %rbp
  40241d:	53                   	push   %rbx
  40241e:	48 81 ec 68 a0 00 00 	sub    $0xa068,%rsp
  402425:	49 89 fc             	mov    %rdi,%r12
  402428:	89 74 24 14          	mov    %esi,0x14(%rsp)
  40242c:	49 89 d7             	mov    %rdx,%r15
  40242f:	49 89 ce             	mov    %rcx,%r14
  402432:	4c 89 44 24 18       	mov    %r8,0x18(%rsp)
  402437:	4d 89 cd             	mov    %r9,%r13
  40243a:	48 8b 9c 24 a0 a0 00 	mov    0xa0a0(%rsp),%rbx
  402441:	00 
  402442:	64 48 8b 04 25 28 00 	mov    %fs:0x28,%rax
  402449:	00 00 
  40244b:	48 89 84 24 58 a0 00 	mov    %rax,0xa058(%rsp)
  402452:	00 
  402453:	31 c0                	xor    %eax,%eax
  402455:	c7 44 24 2c 00 00 00 	movl   $0x0,0x2c(%rsp)
  40245c:	00 
  40245d:	ba 00 00 00 00       	mov    $0x0,%edx
  402462:	be 01 00 00 00       	mov    $0x1,%esi
  402467:	bf 02 00 00 00       	mov    $0x2,%edi
  40246c:	e8 3f ea ff ff       	callq  400eb0 <socket@plt>
  402471:	89 c5                	mov    %eax,%ebp
  402473:	85 c0                	test   %eax,%eax
  402475:	79 4e                	jns    4024c5 <submitr+0xb1>
  402477:	48 b8 45 72 72 6f 72 	movabs $0x43203a726f727245,%rax
  40247e:	3a 20 43 
  402481:	48 89 03             	mov    %rax,(%rbx)
  402484:	48 b8 6c 69 65 6e 74 	movabs $0x6e7520746e65696c,%rax
  40248b:	20 75 6e 
  40248e:	48 89 43 08          	mov    %rax,0x8(%rbx)
  402492:	48 b8 61 62 6c 65 20 	movabs $0x206f7420656c6261,%rax
  402499:	74 6f 20 
  40249c:	48 89 43 10          	mov    %rax,0x10(%rbx)
  4024a0:	48 b8 63 72 65 61 74 	movabs $0x7320657461657263,%rax
  4024a7:	65 20 73 
  4024aa:	48 89 43 18          	mov    %rax,0x18(%rbx)
  4024ae:	c7 43 20 6f 63 6b 65 	movl   $0x656b636f,0x20(%rbx)
  4024b5:	66 c7 43 24 74 00    	movw   $0x74,0x24(%rbx)
  4024bb:	b8 ff ff ff ff       	mov    $0xffffffff,%eax
  4024c0:	e9 84 06 00 00       	jmpq   402b49 <submitr+0x735>
  4024c5:	4c 89 e7             	mov    %r12,%rdi
  4024c8:	e8 b3 e8 ff ff       	callq  400d80 <gethostbyname@plt>
  4024cd:	48 85 c0             	test   %rax,%rax
  4024d0:	75 67                	jne    402539 <submitr+0x125>
  4024d2:	48 b8 45 72 72 6f 72 	movabs $0x44203a726f727245,%rax
  4024d9:	3a 20 44 
  4024dc:	48 89 03             	mov    %rax,(%rbx)
  4024df:	48 b8 4e 53 20 69 73 	movabs $0x6e7520736920534e,%rax
  4024e6:	20 75 6e 
  4024e9:	48 89 43 08          	mov    %rax,0x8(%rbx)
  4024ed:	48 b8 61 62 6c 65 20 	movabs $0x206f7420656c6261,%rax
  4024f4:	74 6f 20 
  4024f7:	48 89 43 10          	mov    %rax,0x10(%rbx)
  4024fb:	48 b8 72 65 73 6f 6c 	movabs $0x2065766c6f736572,%rax
  402502:	76 65 20 
  402505:	48 89 43 18          	mov    %rax,0x18(%rbx)
  402509:	48 b8 73 65 72 76 65 	movabs $0x6120726576726573,%rax
  402510:	72 20 61 
  402513:	48 89 43 20          	mov    %rax,0x20(%rbx)
  402517:	c7 43 28 64 64 72 65 	movl   $0x65726464,0x28(%rbx)
  40251e:	66 c7 43 2c 73 73    	movw   $0x7373,0x2c(%rbx)
  402524:	c6 43 2e 00          	movb   $0x0,0x2e(%rbx)
  402528:	89 ef                	mov    %ebp,%edi
  40252a:	e8 11 e8 ff ff       	callq  400d40 <close@plt>
  40252f:	b8 ff ff ff ff       	mov    $0xffffffff,%eax
  402534:	e9 10 06 00 00       	jmpq   402b49 <submitr+0x735>
  402539:	48 c7 44 24 30 00 00 	movq   $0x0,0x30(%rsp)
  402540:	00 00 
  402542:	48 c7 44 24 38 00 00 	movq   $0x0,0x38(%rsp)
  402549:	00 00 
  40254b:	66 c7 44 24 30 02 00 	movw   $0x2,0x30(%rsp)
  402552:	48 63 50 14          	movslq 0x14(%rax),%rdx
  402556:	48 8b 40 18          	mov    0x18(%rax),%rax
  40255a:	48 8b 30             	mov    (%rax),%rsi
  40255d:	48 8d 7c 24 34       	lea    0x34(%rsp),%rdi
  402562:	b9 0c 00 00 00       	mov    $0xc,%ecx
  402567:	e8 24 e8 ff ff       	callq  400d90 <__memmove_chk@plt>
  40256c:	0f b7 44 24 14       	movzwl 0x14(%rsp),%eax
  402571:	66 c1 c8 08          	ror    $0x8,%ax
  402575:	66 89 44 24 32       	mov    %ax,0x32(%rsp)
  40257a:	ba 10 00 00 00       	mov    $0x10,%edx
  40257f:	48 8d 74 24 30       	lea    0x30(%rsp),%rsi
  402584:	89 ef                	mov    %ebp,%edi
  402586:	e8 f5 e8 ff ff       	callq  400e80 <connect@plt>
  40258b:	85 c0                	test   %eax,%eax
  40258d:	79 59                	jns    4025e8 <submitr+0x1d4>
  40258f:	48 b8 45 72 72 6f 72 	movabs $0x55203a726f727245,%rax
  402596:	3a 20 55 
  402599:	48 89 03             	mov    %rax,(%rbx)
  40259c:	48 b8 6e 61 62 6c 65 	movabs $0x6f7420656c62616e,%rax
  4025a3:	20 74 6f 
  4025a6:	48 89 43 08          	mov    %rax,0x8(%rbx)
  4025aa:	48 b8 20 63 6f 6e 6e 	movabs $0x7463656e6e6f6320,%rax
  4025b1:	65 63 74 
  4025b4:	48 89 43 10          	mov    %rax,0x10(%rbx)
  4025b8:	48 b8 20 74 6f 20 74 	movabs $0x20656874206f7420,%rax
  4025bf:	68 65 20 
  4025c2:	48 89 43 18          	mov    %rax,0x18(%rbx)
  4025c6:	c7 43 20 73 65 72 76 	movl   $0x76726573,0x20(%rbx)
  4025cd:	66 c7 43 24 65 72    	movw   $0x7265,0x24(%rbx)
  4025d3:	c6 43 26 00          	movb   $0x0,0x26(%rbx)
  4025d7:	89 ef                	mov    %ebp,%edi
  4025d9:	e8 62 e7 ff ff       	callq  400d40 <close@plt>
  4025de:	b8 ff ff ff ff       	mov    $0xffffffff,%eax
  4025e3:	e9 61 05 00 00       	jmpq   402b49 <submitr+0x735>
  4025e8:	48 c7 c2 ff ff ff ff 	mov    $0xffffffffffffffff,%rdx
  4025ef:	4c 89 ef             	mov    %r13,%rdi
  4025f2:	b8 00 00 00 00       	mov    $0x0,%eax
  4025f7:	48 89 d1             	mov    %rdx,%rcx
  4025fa:	f2 ae                	repnz scas %es:(%rdi),%al
  4025fc:	48 f7 d1             	not    %rcx
  4025ff:	48 89 ce             	mov    %rcx,%rsi
  402602:	4c 89 ff             	mov    %r15,%rdi
  402605:	48 89 d1             	mov    %rdx,%rcx
  402608:	f2 ae                	repnz scas %es:(%rdi),%al
  40260a:	48 f7 d1             	not    %rcx
  40260d:	49 89 c8             	mov    %rcx,%r8
  402610:	4c 89 f7             	mov    %r14,%rdi
  402613:	48 89 d1             	mov    %rdx,%rcx
  402616:	f2 ae                	repnz scas %es:(%rdi),%al
  402618:	49 29 c8             	sub    %rcx,%r8
  40261b:	48 8b 7c 24 18       	mov    0x18(%rsp),%rdi
  402620:	48 89 d1             	mov    %rdx,%rcx
  402623:	f2 ae                	repnz scas %es:(%rdi),%al
  402625:	49 29 c8             	sub    %rcx,%r8
  402628:	48 8d 44 76 fd       	lea    -0x3(%rsi,%rsi,2),%rax
  40262d:	49 8d 44 00 7b       	lea    0x7b(%r8,%rax,1),%rax
  402632:	48 3d 00 20 00 00    	cmp    $0x2000,%rax
  402638:	76 72                	jbe    4026ac <submitr+0x298>
  40263a:	48 b8 45 72 72 6f 72 	movabs $0x52203a726f727245,%rax
  402641:	3a 20 52 
  402644:	48 89 03             	mov    %rax,(%rbx)
  402647:	48 b8 65 73 75 6c 74 	movabs $0x747320746c757365,%rax
  40264e:	20 73 74 
  402651:	48 89 43 08          	mov    %rax,0x8(%rbx)
  402655:	48 b8 72 69 6e 67 20 	movabs $0x6f6f7420676e6972,%rax
  40265c:	74 6f 6f 
  40265f:	48 89 43 10          	mov    %rax,0x10(%rbx)
  402663:	48 b8 20 6c 61 72 67 	movabs $0x202e656772616c20,%rax
  40266a:	65 2e 20 
  40266d:	48 89 43 18          	mov    %rax,0x18(%rbx)
  402671:	48 b8 49 6e 63 72 65 	movabs $0x6573616572636e49,%rax
  402678:	61 73 65 
  40267b:	48 89 43 20          	mov    %rax,0x20(%rbx)
  40267f:	48 b8 20 53 55 42 4d 	movabs $0x5254494d42555320,%rax
  402686:	49 54 52 
  402689:	48 89 43 28          	mov    %rax,0x28(%rbx)
  40268d:	48 b8 5f 4d 41 58 42 	movabs $0x46554258414d5f,%rax
  402694:	55 46 00 
  402697:	48 89 43 30          	mov    %rax,0x30(%rbx)
  40269b:	89 ef                	mov    %ebp,%edi
  40269d:	e8 9e e6 ff ff       	callq  400d40 <close@plt>
  4026a2:	b8 ff ff ff ff       	mov    $0xffffffff,%eax
  4026a7:	e9 9d 04 00 00       	jmpq   402b49 <submitr+0x735>
  4026ac:	48 8d b4 24 40 20 00 	lea    0x2040(%rsp),%rsi
  4026b3:	00 
  4026b4:	b9 00 04 00 00       	mov    $0x400,%ecx
  4026b9:	b8 00 00 00 00       	mov    $0x0,%eax
  4026be:	48 89 f7             	mov    %rsi,%rdi
  4026c1:	f3 48 ab             	rep stos %rax,%es:(%rdi)
  4026c4:	4c 89 ef             	mov    %r13,%rdi
  4026c7:	e8 3b fc ff ff       	callq  402307 <urlencode>
  4026cc:	85 c0                	test   %eax,%eax
  4026ce:	0f 89 8a 00 00 00    	jns    40275e <submitr+0x34a>
  4026d4:	48 b8 45 72 72 6f 72 	movabs $0x52203a726f727245,%rax
  4026db:	3a 20 52 
  4026de:	48 89 03             	mov    %rax,(%rbx)
  4026e1:	48 b8 65 73 75 6c 74 	movabs $0x747320746c757365,%rax
  4026e8:	20 73 74 
  4026eb:	48 89 43 08          	mov    %rax,0x8(%rbx)
  4026ef:	48 b8 72 69 6e 67 20 	movabs $0x6e6f6320676e6972,%rax
  4026f6:	63 6f 6e 
  4026f9:	48 89 43 10          	mov    %rax,0x10(%rbx)
  4026fd:	48 b8 74 61 69 6e 73 	movabs $0x6e6120736e696174,%rax
  402704:	20 61 6e 
  402707:	48 89 43 18          	mov    %rax,0x18(%rbx)
  40270b:	48 b8 20 69 6c 6c 65 	movabs $0x6c6167656c6c6920,%rax
  402712:	67 61 6c 
  402715:	48 89 43 20          	mov    %rax,0x20(%rbx)
  402719:	48 b8 20 6f 72 20 75 	movabs $0x72706e7520726f20,%rax
  402720:	6e 70 72 
  402723:	48 89 43 28          	mov    %rax,0x28(%rbx)
  402727:	48 b8 69 6e 74 61 62 	movabs $0x20656c6261746e69,%rax
  40272e:	6c 65 20 
  402731:	48 89 43 30          	mov    %rax,0x30(%rbx)
  402735:	48 b8 63 68 61 72 61 	movabs $0x6574636172616863,%rax
  40273c:	63 74 65 
  40273f:	48 89 43 38          	mov    %rax,0x38(%rbx)
  402743:	66 c7 43 40 72 2e    	movw   $0x2e72,0x40(%rbx)
  402749:	c6 43 42 00          	movb   $0x0,0x42(%rbx)
  40274d:	89 ef                	mov    %ebp,%edi
  40274f:	e8 ec e5 ff ff       	callq  400d40 <close@plt>
  402754:	b8 ff ff ff ff       	mov    $0xffffffff,%eax
  402759:	e9 eb 03 00 00       	jmpq   402b49 <submitr+0x735>
  40275e:	4c 89 64 24 08       	mov    %r12,0x8(%rsp)
  402763:	48 8d 84 24 40 20 00 	lea    0x2040(%rsp),%rax
  40276a:	00 
  40276b:	48 89 04 24          	mov    %rax,(%rsp)
  40276f:	4d 89 f9             	mov    %r15,%r9
  402772:	4d 89 f0             	mov    %r14,%r8
  402775:	b9 98 3b 40 00       	mov    $0x403b98,%ecx
  40277a:	ba 00 20 00 00       	mov    $0x2000,%edx
  40277f:	be 01 00 00 00       	mov    $0x1,%esi
  402784:	48 8d 7c 24 40       	lea    0x40(%rsp),%rdi
  402789:	b8 00 00 00 00       	mov    $0x0,%eax
  40278e:	e8 0d e7 ff ff       	callq  400ea0 <__sprintf_chk@plt>
  402793:	48 8d 7c 24 40       	lea    0x40(%rsp),%rdi
  402798:	b8 00 00 00 00       	mov    $0x0,%eax
  40279d:	48 c7 c1 ff ff ff ff 	mov    $0xffffffffffffffff,%rcx
  4027a4:	f2 ae                	repnz scas %es:(%rdi),%al
  4027a6:	48 f7 d1             	not    %rcx
  4027a9:	48 8d 51 ff          	lea    -0x1(%rcx),%rdx
  4027ad:	48 8d 74 24 40       	lea    0x40(%rsp),%rsi
  4027b2:	89 ef                	mov    %ebp,%edi
  4027b4:	e8 e7 f9 ff ff       	callq  4021a0 <rio_writen>
  4027b9:	48 85 c0             	test   %rax,%rax
  4027bc:	79 6e                	jns    40282c <submitr+0x418>
  4027be:	48 b8 45 72 72 6f 72 	movabs $0x43203a726f727245,%rax
  4027c5:	3a 20 43 
  4027c8:	48 89 03             	mov    %rax,(%rbx)
  4027cb:	48 b8 6c 69 65 6e 74 	movabs $0x6e7520746e65696c,%rax
  4027d2:	20 75 6e 
  4027d5:	48 89 43 08          	mov    %rax,0x8(%rbx)
  4027d9:	48 b8 61 62 6c 65 20 	movabs $0x206f7420656c6261,%rax
  4027e0:	74 6f 20 
  4027e3:	48 89 43 10          	mov    %rax,0x10(%rbx)
  4027e7:	48 b8 77 72 69 74 65 	movabs $0x6f74206574697277,%rax
  4027ee:	20 74 6f 
  4027f1:	48 89 43 18          	mov    %rax,0x18(%rbx)
  4027f5:	48 b8 20 74 68 65 20 	movabs $0x7365722065687420,%rax
  4027fc:	72 65 73 
  4027ff:	48 89 43 20          	mov    %rax,0x20(%rbx)
  402803:	48 b8 75 6c 74 20 73 	movabs $0x7672657320746c75,%rax
  40280a:	65 72 76 
  40280d:	48 89 43 28          	mov    %rax,0x28(%rbx)
  402811:	66 c7 43 30 65 72    	movw   $0x7265,0x30(%rbx)
  402817:	c6 43 32 00          	movb   $0x0,0x32(%rbx)
  40281b:	89 ef                	mov    %ebp,%edi
  40281d:	e8 1e e5 ff ff       	callq  400d40 <close@plt>
  402822:	b8 ff ff ff ff       	mov    $0xffffffff,%eax
  402827:	e9 1d 03 00 00       	jmpq   402b49 <submitr+0x735>
  40282c:	89 ee                	mov    %ebp,%esi
  40282e:	48 8d bc 24 40 80 00 	lea    0x8040(%rsp),%rdi
  402835:	00 
  402836:	e8 25 f9 ff ff       	callq  402160 <rio_readinitb>
  40283b:	ba 00 20 00 00       	mov    $0x2000,%edx
  402840:	48 8d 74 24 40       	lea    0x40(%rsp),%rsi
  402845:	48 8d bc 24 40 80 00 	lea    0x8040(%rsp),%rdi
  40284c:	00 
  40284d:	e8 31 fa ff ff       	callq  402283 <rio_readlineb>
  402852:	48 85 c0             	test   %rax,%rax
  402855:	7f 7d                	jg     4028d4 <submitr+0x4c0>
  402857:	48 b8 45 72 72 6f 72 	movabs $0x43203a726f727245,%rax
  40285e:	3a 20 43 
  402861:	48 89 03             	mov    %rax,(%rbx)
  402864:	48 b8 6c 69 65 6e 74 	movabs $0x6e7520746e65696c,%rax
  40286b:	20 75 6e 
  40286e:	48 89 43 08          	mov    %rax,0x8(%rbx)
  402872:	48 b8 61 62 6c 65 20 	movabs $0x206f7420656c6261,%rax
  402879:	74 6f 20 
  40287c:	48 89 43 10          	mov    %rax,0x10(%rbx)
  402880:	48 b8 72 65 61 64 20 	movabs $0x7269662064616572,%rax
  402887:	66 69 72 
  40288a:	48 89 43 18          	mov    %rax,0x18(%rbx)
  40288e:	48 b8 73 74 20 68 65 	movabs $0x6564616568207473,%rax
  402895:	61 64 65 
  402898:	48 89 43 20          	mov    %rax,0x20(%rbx)
  40289c:	48 b8 72 20 66 72 6f 	movabs $0x72206d6f72662072,%rax
  4028a3:	6d 20 72 
  4028a6:	48 89 43 28          	mov    %rax,0x28(%rbx)
  4028aa:	48 b8 65 73 75 6c 74 	movabs $0x657320746c757365,%rax
  4028b1:	20 73 65 
  4028b4:	48 89 43 30          	mov    %rax,0x30(%rbx)
  4028b8:	c7 43 38 72 76 65 72 	movl   $0x72657672,0x38(%rbx)
  4028bf:	c6 43 3c 00          	movb   $0x0,0x3c(%rbx)
  4028c3:	89 ef                	mov    %ebp,%edi
  4028c5:	e8 76 e4 ff ff       	callq  400d40 <close@plt>
  4028ca:	b8 ff ff ff ff       	mov    $0xffffffff,%eax
  4028cf:	e9 75 02 00 00       	jmpq   402b49 <submitr+0x735>
  4028d4:	4c 8d 84 24 40 60 00 	lea    0x6040(%rsp),%r8
  4028db:	00 
  4028dc:	48 8d 4c 24 2c       	lea    0x2c(%rsp),%rcx
  4028e1:	48 8d 94 24 40 40 00 	lea    0x4040(%rsp),%rdx
  4028e8:	00 
  4028e9:	be 0f 3c 40 00       	mov    $0x403c0f,%esi
  4028ee:	48 8d 7c 24 40       	lea    0x40(%rsp),%rdi
  4028f3:	b8 00 00 00 00       	mov    $0x0,%eax
  4028f8:	e8 03 e5 ff ff       	callq  400e00 <__isoc99_sscanf@plt>
  4028fd:	41 bc 0d 00 00 00    	mov    $0xd,%r12d
  402903:	41 bd 0a 00 00 00    	mov    $0xa,%r13d
  402909:	e9 95 00 00 00       	jmpq   4029a3 <submitr+0x58f>
  40290e:	ba 00 20 00 00       	mov    $0x2000,%edx
  402913:	48 8d 74 24 40       	lea    0x40(%rsp),%rsi
  402918:	48 8d bc 24 40 80 00 	lea    0x8040(%rsp),%rdi
  40291f:	00 
  402920:	e8 5e f9 ff ff       	callq  402283 <rio_readlineb>
  402925:	48 85 c0             	test   %rax,%rax
  402928:	7f 79                	jg     4029a3 <submitr+0x58f>
  40292a:	48 b8 45 72 72 6f 72 	movabs $0x43203a726f727245,%rax
  402931:	3a 20 43 
  402934:	48 89 03             	mov    %rax,(%rbx)
  402937:	48 b8 6c 69 65 6e 74 	movabs $0x6e7520746e65696c,%rax
  40293e:	20 75 6e 
  402941:	48 89 43 08          	mov    %rax,0x8(%rbx)
  402945:	48 b8 61 62 6c 65 20 	movabs $0x206f7420656c6261,%rax
  40294c:	74 6f 20 
  40294f:	48 89 43 10          	mov    %rax,0x10(%rbx)
  402953:	48 b8 72 65 61 64 20 	movabs $0x6165682064616572,%rax
  40295a:	68 65 61 
  40295d:	48 89 43 18          	mov    %rax,0x18(%rbx)
  402961:	48 b8 64 65 72 73 20 	movabs $0x6f72662073726564,%rax
  402968:	66 72 6f 
  40296b:	48 89 43 20          	mov    %rax,0x20(%rbx)
  40296f:	48 b8 6d 20 74 68 65 	movabs $0x657220656874206d,%rax
  402976:	20 72 65 
  402979:	48 89 43 28          	mov    %rax,0x28(%rbx)
  40297d:	48 b8 73 75 6c 74 20 	movabs $0x72657320746c7573,%rax
  402984:	73 65 72 
  402987:	48 89 43 30          	mov    %rax,0x30(%rbx)
  40298b:	c7 43 38 76 65 72 00 	movl   $0x726576,0x38(%rbx)
  402992:	89 ef                	mov    %ebp,%edi
  402994:	e8 a7 e3 ff ff       	callq  400d40 <close@plt>
  402999:	b8 ff ff ff ff       	mov    $0xffffffff,%eax
  40299e:	e9 a6 01 00 00       	jmpq   402b49 <submitr+0x735>
  4029a3:	0f b6 44 24 40       	movzbl 0x40(%rsp),%eax
  4029a8:	44 89 e6             	mov    %r12d,%esi
  4029ab:	29 c6                	sub    %eax,%esi
  4029ad:	89 f0                	mov    %esi,%eax
  4029af:	75 15                	jne    4029c6 <submitr+0x5b2>
  4029b1:	0f b6 44 24 41       	movzbl 0x41(%rsp),%eax
  4029b6:	44 89 ea             	mov    %r13d,%edx
  4029b9:	29 c2                	sub    %eax,%edx
  4029bb:	89 d0                	mov    %edx,%eax
  4029bd:	75 07                	jne    4029c6 <submitr+0x5b2>
  4029bf:	0f b6 44 24 42       	movzbl 0x42(%rsp),%eax
  4029c4:	f7 d8                	neg    %eax
  4029c6:	85 c0                	test   %eax,%eax
  4029c8:	0f 85 40 ff ff ff    	jne    40290e <submitr+0x4fa>
  4029ce:	ba 00 20 00 00       	mov    $0x2000,%edx
  4029d3:	48 8d 74 24 40       	lea    0x40(%rsp),%rsi
  4029d8:	48 8d bc 24 40 80 00 	lea    0x8040(%rsp),%rdi
  4029df:	00 
  4029e0:	e8 9e f8 ff ff       	callq  402283 <rio_readlineb>
  4029e5:	48 85 c0             	test   %rax,%rax
  4029e8:	0f 8f 83 00 00 00    	jg     402a71 <submitr+0x65d>
  4029ee:	48 b8 45 72 72 6f 72 	movabs $0x43203a726f727245,%rax
  4029f5:	3a 20 43 
  4029f8:	48 89 03             	mov    %rax,(%rbx)
  4029fb:	48 b8 6c 69 65 6e 74 	movabs $0x6e7520746e65696c,%rax
  402a02:	20 75 6e 
  402a05:	48 89 43 08          	mov    %rax,0x8(%rbx)
  402a09:	48 b8 61 62 6c 65 20 	movabs $0x206f7420656c6261,%rax
  402a10:	74 6f 20 
  402a13:	48 89 43 10          	mov    %rax,0x10(%rbx)
  402a17:	48 b8 72 65 61 64 20 	movabs $0x6174732064616572,%rax
  402a1e:	73 74 61 
  402a21:	48 89 43 18          	mov    %rax,0x18(%rbx)
  402a25:	48 b8 74 75 73 20 6d 	movabs $0x7373656d20737574,%rax
  402a2c:	65 73 73 
  402a2f:	48 89 43 20          	mov    %rax,0x20(%rbx)
  402a33:	48 b8 61 67 65 20 66 	movabs $0x6d6f726620656761,%rax
  402a3a:	72 6f 6d 
  402a3d:	48 89 43 28          	mov    %rax,0x28(%rbx)
  402a41:	48 b8 20 72 65 73 75 	movabs $0x20746c7573657220,%rax
  402a48:	6c 74 20 
  402a4b:	48 89 43 30          	mov    %rax,0x30(%rbx)
  402a4f:	c7 43 38 73 65 72 76 	movl   $0x76726573,0x38(%rbx)
  402a56:	66 c7 43 3c 65 72    	movw   $0x7265,0x3c(%rbx)
  402a5c:	c6 43 3e 00          	movb   $0x0,0x3e(%rbx)
  402a60:	89 ef                	mov    %ebp,%edi
  402a62:	e8 d9 e2 ff ff       	callq  400d40 <close@plt>
  402a67:	b8 ff ff ff ff       	mov    $0xffffffff,%eax
  402a6c:	e9 d8 00 00 00       	jmpq   402b49 <submitr+0x735>
  402a71:	44 8b 44 24 2c       	mov    0x2c(%rsp),%r8d
  402a76:	41 81 f8 c8 00 00 00 	cmp    $0xc8,%r8d
  402a7d:	74 37                	je     402ab6 <submitr+0x6a2>
  402a7f:	4c 8d 8c 24 40 60 00 	lea    0x6040(%rsp),%r9
  402a86:	00 
  402a87:	b9 d8 3b 40 00       	mov    $0x403bd8,%ecx
  402a8c:	48 c7 c2 ff ff ff ff 	mov    $0xffffffffffffffff,%rdx
  402a93:	be 01 00 00 00       	mov    $0x1,%esi
  402a98:	48 89 df             	mov    %rbx,%rdi
  402a9b:	b8 00 00 00 00       	mov    $0x0,%eax
  402aa0:	e8 fb e3 ff ff       	callq  400ea0 <__sprintf_chk@plt>
  402aa5:	89 ef                	mov    %ebp,%edi
  402aa7:	e8 94 e2 ff ff       	callq  400d40 <close@plt>
  402aac:	b8 ff ff ff ff       	mov    $0xffffffff,%eax
  402ab1:	e9 93 00 00 00       	jmpq   402b49 <submitr+0x735>
  402ab6:	48 8d 74 24 40       	lea    0x40(%rsp),%rsi
  402abb:	48 89 df             	mov    %rbx,%rdi
  402abe:	e8 0d e2 ff ff       	callq  400cd0 <strcpy@plt>
  402ac3:	89 ef                	mov    %ebp,%edi
  402ac5:	e8 76 e2 ff ff       	callq  400d40 <close@plt>
  402aca:	0f b6 03             	movzbl (%rbx),%eax
  402acd:	ba 4f 00 00 00       	mov    $0x4f,%edx
  402ad2:	29 c2                	sub    %eax,%edx
  402ad4:	75 22                	jne    402af8 <submitr+0x6e4>
  402ad6:	0f b6 4b 01          	movzbl 0x1(%rbx),%ecx
  402ada:	b8 4b 00 00 00       	mov    $0x4b,%eax
  402adf:	29 c8                	sub    %ecx,%eax
  402ae1:	75 17                	jne    402afa <submitr+0x6e6>
  402ae3:	0f b6 4b 02          	movzbl 0x2(%rbx),%ecx
  402ae7:	b8 0a 00 00 00       	mov    $0xa,%eax
  402aec:	29 c8                	sub    %ecx,%eax
  402aee:	75 0a                	jne    402afa <submitr+0x6e6>
  402af0:	0f b6 43 03          	movzbl 0x3(%rbx),%eax
  402af4:	f7 d8                	neg    %eax
  402af6:	eb 02                	jmp    402afa <submitr+0x6e6>
  402af8:	89 d0                	mov    %edx,%eax
  402afa:	85 c0                	test   %eax,%eax
  402afc:	74 38                	je     402b36 <submitr+0x722>
  402afe:	bf 20 3c 40 00       	mov    $0x403c20,%edi
  402b03:	b9 05 00 00 00       	mov    $0x5,%ecx
  402b08:	48 89 de             	mov    %rbx,%rsi
  402b0b:	f3 a6                	repz cmpsb %es:(%rdi),%ds:(%rsi)
  402b0d:	0f 97 c1             	seta   %cl
  402b10:	0f 92 c0             	setb   %al
  402b13:	38 c1                	cmp    %al,%cl
  402b15:	74 26                	je     402b3d <submitr+0x729>
  402b17:	85 d2                	test   %edx,%edx
  402b19:	75 10                	jne    402b2b <submitr+0x717>
  402b1b:	0f b6 43 01          	movzbl 0x1(%rbx),%eax
  402b1f:	b2 4b                	mov    $0x4b,%dl
  402b21:	29 c2                	sub    %eax,%edx
  402b23:	75 06                	jne    402b2b <submitr+0x717>
  402b25:	0f b6 53 02          	movzbl 0x2(%rbx),%edx
  402b29:	f7 da                	neg    %edx
  402b2b:	85 d2                	test   %edx,%edx
  402b2d:	75 15                	jne    402b44 <submitr+0x730>
  402b2f:	b8 00 00 00 00       	mov    $0x0,%eax
  402b34:	eb 13                	jmp    402b49 <submitr+0x735>
  402b36:	b8 00 00 00 00       	mov    $0x0,%eax
  402b3b:	eb 0c                	jmp    402b49 <submitr+0x735>
  402b3d:	b8 00 00 00 00       	mov    $0x0,%eax
  402b42:	eb 05                	jmp    402b49 <submitr+0x735>
  402b44:	b8 ff ff ff ff       	mov    $0xffffffff,%eax
  402b49:	48 8b 9c 24 58 a0 00 	mov    0xa058(%rsp),%rbx
  402b50:	00 
  402b51:	64 48 33 1c 25 28 00 	xor    %fs:0x28,%rbx
  402b58:	00 00 
  402b5a:	74 05                	je     402b61 <submitr+0x74d>
  402b5c:	e8 9f e1 ff ff       	callq  400d00 <__stack_chk_fail@plt>
  402b61:	48 81 c4 68 a0 00 00 	add    $0xa068,%rsp
  402b68:	5b                   	pop    %rbx
  402b69:	5d                   	pop    %rbp
  402b6a:	41 5c                	pop    %r12
  402b6c:	41 5d                	pop    %r13
  402b6e:	41 5e                	pop    %r14
  402b70:	41 5f                	pop    %r15
  402b72:	c3                   	retq   

0000000000402b73 <init_timeout>:
  402b73:	53                   	push   %rbx
  402b74:	89 fb                	mov    %edi,%ebx
  402b76:	85 ff                	test   %edi,%edi
  402b78:	74 1f                	je     402b99 <init_timeout+0x26>
  402b7a:	85 ff                	test   %edi,%edi
  402b7c:	79 05                	jns    402b83 <init_timeout+0x10>
  402b7e:	bb 00 00 00 00       	mov    $0x0,%ebx
  402b83:	be 72 21 40 00       	mov    $0x402172,%esi
  402b88:	bf 0e 00 00 00       	mov    $0xe,%edi
  402b8d:	e8 de e1 ff ff       	callq  400d70 <signal@plt>
  402b92:	89 df                	mov    %ebx,%edi
  402b94:	e8 97 e1 ff ff       	callq  400d30 <alarm@plt>
  402b99:	5b                   	pop    %rbx
  402b9a:	c3                   	retq   

0000000000402b9b <init_driver>:
  402b9b:	55                   	push   %rbp
  402b9c:	53                   	push   %rbx
  402b9d:	48 83 ec 28          	sub    $0x28,%rsp
  402ba1:	48 89 fd             	mov    %rdi,%rbp
  402ba4:	64 48 8b 04 25 28 00 	mov    %fs:0x28,%rax
  402bab:	00 00 
  402bad:	48 89 44 24 18       	mov    %rax,0x18(%rsp)
  402bb2:	31 c0                	xor    %eax,%eax
  402bb4:	be 01 00 00 00       	mov    $0x1,%esi
  402bb9:	bf 0d 00 00 00       	mov    $0xd,%edi
  402bbe:	e8 ad e1 ff ff       	callq  400d70 <signal@plt>
  402bc3:	be 01 00 00 00       	mov    $0x1,%esi
  402bc8:	bf 1d 00 00 00       	mov    $0x1d,%edi
  402bcd:	e8 9e e1 ff ff       	callq  400d70 <signal@plt>
  402bd2:	be 01 00 00 00       	mov    $0x1,%esi
  402bd7:	bf 1d 00 00 00       	mov    $0x1d,%edi
  402bdc:	e8 8f e1 ff ff       	callq  400d70 <signal@plt>
  402be1:	ba 00 00 00 00       	mov    $0x0,%edx
  402be6:	be 01 00 00 00       	mov    $0x1,%esi
  402beb:	bf 02 00 00 00       	mov    $0x2,%edi
  402bf0:	e8 bb e2 ff ff       	callq  400eb0 <socket@plt>
  402bf5:	89 c3                	mov    %eax,%ebx
  402bf7:	85 c0                	test   %eax,%eax
  402bf9:	79 4f                	jns    402c4a <init_driver+0xaf>
  402bfb:	48 b8 45 72 72 6f 72 	movabs $0x43203a726f727245,%rax
  402c02:	3a 20 43 
  402c05:	48 89 45 00          	mov    %rax,0x0(%rbp)
  402c09:	48 b8 6c 69 65 6e 74 	movabs $0x6e7520746e65696c,%rax
  402c10:	20 75 6e 
  402c13:	48 89 45 08          	mov    %rax,0x8(%rbp)
  402c17:	48 b8 61 62 6c 65 20 	movabs $0x206f7420656c6261,%rax
  402c1e:	74 6f 20 
  402c21:	48 89 45 10          	mov    %rax,0x10(%rbp)
  402c25:	48 b8 63 72 65 61 74 	movabs $0x7320657461657263,%rax
  402c2c:	65 20 73 
  402c2f:	48 89 45 18          	mov    %rax,0x18(%rbp)
  402c33:	c7 45 20 6f 63 6b 65 	movl   $0x656b636f,0x20(%rbp)
  402c3a:	66 c7 45 24 74 00    	movw   $0x74,0x24(%rbp)
  402c40:	b8 ff ff ff ff       	mov    $0xffffffff,%eax
  402c45:	e9 28 01 00 00       	jmpq   402d72 <init_driver+0x1d7>
  402c4a:	bf 07 32 40 00       	mov    $0x403207,%edi
  402c4f:	e8 2c e1 ff ff       	callq  400d80 <gethostbyname@plt>
  402c54:	48 85 c0             	test   %rax,%rax
  402c57:	75 68                	jne    402cc1 <init_driver+0x126>
  402c59:	48 b8 45 72 72 6f 72 	movabs $0x44203a726f727245,%rax
  402c60:	3a 20 44 
  402c63:	48 89 45 00          	mov    %rax,0x0(%rbp)
  402c67:	48 b8 4e 53 20 69 73 	movabs $0x6e7520736920534e,%rax
  402c6e:	20 75 6e 
  402c71:	48 89 45 08          	mov    %rax,0x8(%rbp)
  402c75:	48 b8 61 62 6c 65 20 	movabs $0x206f7420656c6261,%rax
  402c7c:	74 6f 20 
  402c7f:	48 89 45 10          	mov    %rax,0x10(%rbp)
  402c83:	48 b8 72 65 73 6f 6c 	movabs $0x2065766c6f736572,%rax
  402c8a:	76 65 20 
  402c8d:	48 89 45 18          	mov    %rax,0x18(%rbp)
  402c91:	48 b8 73 65 72 76 65 	movabs $0x6120726576726573,%rax
  402c98:	72 20 61 
  402c9b:	48 89 45 20          	mov    %rax,0x20(%rbp)
  402c9f:	c7 45 28 64 64 72 65 	movl   $0x65726464,0x28(%rbp)
  402ca6:	66 c7 45 2c 73 73    	movw   $0x7373,0x2c(%rbp)
  402cac:	c6 45 2e 00          	movb   $0x0,0x2e(%rbp)
  402cb0:	89 df                	mov    %ebx,%edi
  402cb2:	e8 89 e0 ff ff       	callq  400d40 <close@plt>
  402cb7:	b8 ff ff ff ff       	mov    $0xffffffff,%eax
  402cbc:	e9 b1 00 00 00       	jmpq   402d72 <init_driver+0x1d7>
  402cc1:	48 c7 04 24 00 00 00 	movq   $0x0,(%rsp)
  402cc8:	00 
  402cc9:	48 c7 44 24 08 00 00 	movq   $0x0,0x8(%rsp)
  402cd0:	00 00 
  402cd2:	66 c7 04 24 02 00    	movw   $0x2,(%rsp)
  402cd8:	48 63 50 14          	movslq 0x14(%rax),%rdx
  402cdc:	48 8b 40 18          	mov    0x18(%rax),%rax
  402ce0:	48 8b 30             	mov    (%rax),%rsi
  402ce3:	48 8d 7c 24 04       	lea    0x4(%rsp),%rdi
  402ce8:	b9 0c 00 00 00       	mov    $0xc,%ecx
  402ced:	e8 9e e0 ff ff       	callq  400d90 <__memmove_chk@plt>
  402cf2:	66 c7 44 24 02 3c 9a 	movw   $0x9a3c,0x2(%rsp)
  402cf9:	ba 10 00 00 00       	mov    $0x10,%edx
  402cfe:	48 89 e6             	mov    %rsp,%rsi
  402d01:	89 df                	mov    %ebx,%edi
  402d03:	e8 78 e1 ff ff       	callq  400e80 <connect@plt>
  402d08:	85 c0                	test   %eax,%eax
  402d0a:	79 50                	jns    402d5c <init_driver+0x1c1>
  402d0c:	48 b8 45 72 72 6f 72 	movabs $0x55203a726f727245,%rax
  402d13:	3a 20 55 
  402d16:	48 89 45 00          	mov    %rax,0x0(%rbp)
  402d1a:	48 b8 6e 61 62 6c 65 	movabs $0x6f7420656c62616e,%rax
  402d21:	20 74 6f 
  402d24:	48 89 45 08          	mov    %rax,0x8(%rbp)
  402d28:	48 b8 20 63 6f 6e 6e 	movabs $0x7463656e6e6f6320,%rax
  402d2f:	65 63 74 
  402d32:	48 89 45 10          	mov    %rax,0x10(%rbp)
  402d36:	48 b8 20 74 6f 20 73 	movabs $0x76726573206f7420,%rax
  402d3d:	65 72 76 
  402d40:	48 89 45 18          	mov    %rax,0x18(%rbp)
  402d44:	66 c7 45 20 65 72    	movw   $0x7265,0x20(%rbp)
  402d4a:	c6 45 22 00          	movb   $0x0,0x22(%rbp)
  402d4e:	89 df                	mov    %ebx,%edi
  402d50:	e8 eb df ff ff       	callq  400d40 <close@plt>
  402d55:	b8 ff ff ff ff       	mov    $0xffffffff,%eax
  402d5a:	eb 16                	jmp    402d72 <init_driver+0x1d7>
  402d5c:	89 df                	mov    %ebx,%edi
  402d5e:	e8 dd df ff ff       	callq  400d40 <close@plt>
  402d63:	66 c7 45 00 4f 4b    	movw   $0x4b4f,0x0(%rbp)
  402d69:	c6 45 02 00          	movb   $0x0,0x2(%rbp)
  402d6d:	b8 00 00 00 00       	mov    $0x0,%eax
  402d72:	48 8b 4c 24 18       	mov    0x18(%rsp),%rcx
  402d77:	64 48 33 0c 25 28 00 	xor    %fs:0x28,%rcx
  402d7e:	00 00 
  402d80:	74 05                	je     402d87 <init_driver+0x1ec>
  402d82:	e8 79 df ff ff       	callq  400d00 <__stack_chk_fail@plt>
  402d87:	48 83 c4 28          	add    $0x28,%rsp
  402d8b:	5b                   	pop    %rbx
  402d8c:	5d                   	pop    %rbp
  402d8d:	c3                   	retq   

0000000000402d8e <driver_post>:
  402d8e:	53                   	push   %rbx
  402d8f:	48 83 ec 10          	sub    $0x10,%rsp
  402d93:	4c 89 cb             	mov    %r9,%rbx
  402d96:	45 85 c0             	test   %r8d,%r8d
  402d99:	74 27                	je     402dc2 <driver_post+0x34>
  402d9b:	48 89 ca             	mov    %rcx,%rdx
  402d9e:	be 25 3c 40 00       	mov    $0x403c25,%esi
  402da3:	bf 01 00 00 00       	mov    $0x1,%edi
  402da8:	b8 00 00 00 00       	mov    $0x0,%eax
  402dad:	e8 6e e0 ff ff       	callq  400e20 <__printf_chk@plt>
  402db2:	66 c7 03 4f 4b       	movw   $0x4b4f,(%rbx)
  402db7:	c6 43 02 00          	movb   $0x0,0x2(%rbx)
  402dbb:	b8 00 00 00 00       	mov    $0x0,%eax
  402dc0:	eb 39                	jmp    402dfb <driver_post+0x6d>
  402dc2:	48 85 ff             	test   %rdi,%rdi
  402dc5:	74 26                	je     402ded <driver_post+0x5f>
  402dc7:	80 3f 00             	cmpb   $0x0,(%rdi)
  402dca:	74 21                	je     402ded <driver_post+0x5f>
  402dcc:	4c 89 0c 24          	mov    %r9,(%rsp)
  402dd0:	49 89 c9             	mov    %rcx,%r9
  402dd3:	49 89 d0             	mov    %rdx,%r8
  402dd6:	48 89 f9             	mov    %rdi,%rcx
  402dd9:	48 89 f2             	mov    %rsi,%rdx
  402ddc:	be 9a 3c 00 00       	mov    $0x3c9a,%esi
  402de1:	bf 07 32 40 00       	mov    $0x403207,%edi
  402de6:	e8 29 f6 ff ff       	callq  402414 <submitr>
  402deb:	eb 0e                	jmp    402dfb <driver_post+0x6d>
  402ded:	66 c7 03 4f 4b       	movw   $0x4b4f,(%rbx)
  402df2:	c6 43 02 00          	movb   $0x0,0x2(%rbx)
  402df6:	b8 00 00 00 00       	mov    $0x0,%eax
  402dfb:	48 83 c4 10          	add    $0x10,%rsp
  402dff:	5b                   	pop    %rbx
  402e00:	c3                   	retq   

0000000000402e01 <check>:
  402e01:	89 f8                	mov    %edi,%eax
  402e03:	c1 e8 1c             	shr    $0x1c,%eax
  402e06:	85 c0                	test   %eax,%eax
  402e08:	74 1d                	je     402e27 <check+0x26>
  402e0a:	b9 00 00 00 00       	mov    $0x0,%ecx
  402e0f:	eb 0b                	jmp    402e1c <check+0x1b>
  402e11:	89 f8                	mov    %edi,%eax
  402e13:	d3 e8                	shr    %cl,%eax
  402e15:	3c 0a                	cmp    $0xa,%al
  402e17:	74 14                	je     402e2d <check+0x2c>
  402e19:	83 c1 08             	add    $0x8,%ecx
  402e1c:	83 f9 1f             	cmp    $0x1f,%ecx
  402e1f:	7e f0                	jle    402e11 <check+0x10>
  402e21:	b8 01 00 00 00       	mov    $0x1,%eax
  402e26:	c3                   	retq   
  402e27:	b8 00 00 00 00       	mov    $0x0,%eax
  402e2c:	c3                   	retq   
  402e2d:	b8 00 00 00 00       	mov    $0x0,%eax
  402e32:	c3                   	retq   

0000000000402e33 <gencookie>:
  402e33:	53                   	push   %rbx
  402e34:	83 c7 01             	add    $0x1,%edi
  402e37:	e8 74 de ff ff       	callq  400cb0 <srandom@plt>
  402e3c:	e8 9f df ff ff       	callq  400de0 <random@plt>
  402e41:	89 c3                	mov    %eax,%ebx
  402e43:	89 c7                	mov    %eax,%edi
  402e45:	e8 b7 ff ff ff       	callq  402e01 <check>
  402e4a:	85 c0                	test   %eax,%eax
  402e4c:	74 ee                	je     402e3c <gencookie+0x9>
  402e4e:	89 d8                	mov    %ebx,%eax
  402e50:	5b                   	pop    %rbx
  402e51:	c3                   	retq   
  402e52:	66 2e 0f 1f 84 00 00 	nopw   %cs:0x0(%rax,%rax,1)
  402e59:	00 00 00 
  402e5c:	0f 1f 40 00          	nopl   0x0(%rax)

0000000000402e60 <__libc_csu_init>:
  402e60:	41 57                	push   %r15
  402e62:	41 89 ff             	mov    %edi,%r15d
  402e65:	41 56                	push   %r14
  402e67:	49 89 f6             	mov    %rsi,%r14
  402e6a:	41 55                	push   %r13
  402e6c:	49 89 d5             	mov    %rdx,%r13
  402e6f:	41 54                	push   %r12
  402e71:	4c 8d 25 98 1f 20 00 	lea    0x201f98(%rip),%r12        # 604e10 <__frame_dummy_init_array_entry>
  402e78:	55                   	push   %rbp
  402e79:	48 8d 2d 98 1f 20 00 	lea    0x201f98(%rip),%rbp        # 604e18 <__init_array_end>
  402e80:	53                   	push   %rbx
  402e81:	4c 29 e5             	sub    %r12,%rbp
  402e84:	31 db                	xor    %ebx,%ebx
  402e86:	48 c1 fd 03          	sar    $0x3,%rbp
  402e8a:	48 83 ec 08          	sub    $0x8,%rsp
  402e8e:	e8 cd dd ff ff       	callq  400c60 <_init>
  402e93:	48 85 ed             	test   %rbp,%rbp
  402e96:	74 1e                	je     402eb6 <__libc_csu_init+0x56>
  402e98:	0f 1f 84 00 00 00 00 	nopl   0x0(%rax,%rax,1)
  402e9f:	00 
  402ea0:	4c 89 ea             	mov    %r13,%rdx
  402ea3:	4c 89 f6             	mov    %r14,%rsi
  402ea6:	44 89 ff             	mov    %r15d,%edi
  402ea9:	41 ff 14 dc          	callq  *(%r12,%rbx,8)
  402ead:	48 83 c3 01          	add    $0x1,%rbx
  402eb1:	48 39 eb             	cmp    %rbp,%rbx
  402eb4:	75 ea                	jne    402ea0 <__libc_csu_init+0x40>
  402eb6:	48 83 c4 08          	add    $0x8,%rsp
  402eba:	5b                   	pop    %rbx
  402ebb:	5d                   	pop    %rbp
  402ebc:	41 5c                	pop    %r12
  402ebe:	41 5d                	pop    %r13
  402ec0:	41 5e                	pop    %r14
  402ec2:	41 5f                	pop    %r15
  402ec4:	c3                   	retq   
  402ec5:	66 66 2e 0f 1f 84 00 	data32 nopw %cs:0x0(%rax,%rax,1)
  402ecc:	00 00 00 00 

0000000000402ed0 <__libc_csu_fini>:
  402ed0:	f3 c3                	repz retq 

Disassembly of section .fini:

0000000000402ed4 <_fini>:
  402ed4:	48 83 ec 08          	sub    $0x8,%rsp
  402ed8:	48 83 c4 08          	add    $0x8,%rsp
  402edc:	c3                   	retq   
